ARM GAS  /var/folders/v3/pl5z0pl12fx5br3g9j_y4ffr0000gn/T//cc9IaKXR.s 			page 1


   1              		.syntax unified
   2              		.cpu cortex-m4
   3              		.eabi_attribute 27, 1
   4              		.eabi_attribute 28, 1
   5              		.fpu fpv4-sp-d16
   6              		.eabi_attribute 20, 1
   7              		.eabi_attribute 21, 1
   8              		.eabi_attribute 23, 3
   9              		.eabi_attribute 24, 1
  10              		.eabi_attribute 25, 1
  11              		.eabi_attribute 26, 1
  12              		.eabi_attribute 30, 1
  13              		.eabi_attribute 34, 1
  14              		.eabi_attribute 18, 4
  15              		.thumb
  16              		.syntax unified
  17              		.file	"stm32f4xx_crc.c"
  18              		.text
  19              	.Ltext0:
  20              		.cfi_sections	.debug_frame
  21              		.section	.text.CRC_ResetDR,"ax",%progbits
  22              		.align	2
  23              		.global	CRC_ResetDR
  24              		.thumb
  25              		.thumb_func
  27              	CRC_ResetDR:
  28              	.LFB112:
  29              		.file 1 ".//FWLIB/src/stm32f4xx_crc.c"
   1:.//FWLIB/src/stm32f4xx_crc.c **** /**
   2:.//FWLIB/src/stm32f4xx_crc.c ****   ******************************************************************************
   3:.//FWLIB/src/stm32f4xx_crc.c ****   * @file    stm32f4xx_crc.c
   4:.//FWLIB/src/stm32f4xx_crc.c ****   * @author  MCD Application Team
   5:.//FWLIB/src/stm32f4xx_crc.c ****   * @version V1.4.0
   6:.//FWLIB/src/stm32f4xx_crc.c ****   * @date    04-August-2014
   7:.//FWLIB/src/stm32f4xx_crc.c ****   * @brief   This file provides all the CRC firmware functions.
   8:.//FWLIB/src/stm32f4xx_crc.c ****   ******************************************************************************
   9:.//FWLIB/src/stm32f4xx_crc.c ****   * @attention
  10:.//FWLIB/src/stm32f4xx_crc.c ****   *
  11:.//FWLIB/src/stm32f4xx_crc.c ****   * <h2><center>&copy; COPYRIGHT 2014 STMicroelectronics</center></h2>
  12:.//FWLIB/src/stm32f4xx_crc.c ****   *
  13:.//FWLIB/src/stm32f4xx_crc.c ****   * Licensed under MCD-ST Liberty SW License Agreement V2, (the "License");
  14:.//FWLIB/src/stm32f4xx_crc.c ****   * You may not use this file except in compliance with the License.
  15:.//FWLIB/src/stm32f4xx_crc.c ****   * You may obtain a copy of the License at:
  16:.//FWLIB/src/stm32f4xx_crc.c ****   *
  17:.//FWLIB/src/stm32f4xx_crc.c ****   *        http://www.st.com/software_license_agreement_liberty_v2
  18:.//FWLIB/src/stm32f4xx_crc.c ****   *
  19:.//FWLIB/src/stm32f4xx_crc.c ****   * Unless required by applicable law or agreed to in writing, software 
  20:.//FWLIB/src/stm32f4xx_crc.c ****   * distributed under the License is distributed on an "AS IS" BASIS, 
  21:.//FWLIB/src/stm32f4xx_crc.c ****   * WITHOUT WARRANTIES OR CONDITIONS OF ANY KIND, either express or implied.
  22:.//FWLIB/src/stm32f4xx_crc.c ****   * See the License for the specific language governing permissions and
  23:.//FWLIB/src/stm32f4xx_crc.c ****   * limitations under the License.
  24:.//FWLIB/src/stm32f4xx_crc.c ****   *
  25:.//FWLIB/src/stm32f4xx_crc.c ****   ******************************************************************************
  26:.//FWLIB/src/stm32f4xx_crc.c ****   */
  27:.//FWLIB/src/stm32f4xx_crc.c **** 
  28:.//FWLIB/src/stm32f4xx_crc.c **** /* Includes ------------------------------------------------------------------*/
  29:.//FWLIB/src/stm32f4xx_crc.c **** #include "stm32f4xx_crc.h"
ARM GAS  /var/folders/v3/pl5z0pl12fx5br3g9j_y4ffr0000gn/T//cc9IaKXR.s 			page 2


  30:.//FWLIB/src/stm32f4xx_crc.c **** 
  31:.//FWLIB/src/stm32f4xx_crc.c **** /** @addtogroup STM32F4xx_StdPeriph_Driver
  32:.//FWLIB/src/stm32f4xx_crc.c ****   * @{
  33:.//FWLIB/src/stm32f4xx_crc.c ****   */
  34:.//FWLIB/src/stm32f4xx_crc.c **** 
  35:.//FWLIB/src/stm32f4xx_crc.c **** /** @defgroup CRC 
  36:.//FWLIB/src/stm32f4xx_crc.c ****   * @brief CRC driver modules
  37:.//FWLIB/src/stm32f4xx_crc.c ****   * @{
  38:.//FWLIB/src/stm32f4xx_crc.c ****   */
  39:.//FWLIB/src/stm32f4xx_crc.c **** 
  40:.//FWLIB/src/stm32f4xx_crc.c **** /* Private typedef -----------------------------------------------------------*/
  41:.//FWLIB/src/stm32f4xx_crc.c **** /* Private define ------------------------------------------------------------*/
  42:.//FWLIB/src/stm32f4xx_crc.c **** /* Private macro -------------------------------------------------------------*/
  43:.//FWLIB/src/stm32f4xx_crc.c **** /* Private variables ---------------------------------------------------------*/
  44:.//FWLIB/src/stm32f4xx_crc.c **** /* Private function prototypes -----------------------------------------------*/
  45:.//FWLIB/src/stm32f4xx_crc.c **** /* Private functions ---------------------------------------------------------*/
  46:.//FWLIB/src/stm32f4xx_crc.c **** 
  47:.//FWLIB/src/stm32f4xx_crc.c **** /** @defgroup CRC_Private_Functions
  48:.//FWLIB/src/stm32f4xx_crc.c ****   * @{
  49:.//FWLIB/src/stm32f4xx_crc.c ****   */
  50:.//FWLIB/src/stm32f4xx_crc.c **** 
  51:.//FWLIB/src/stm32f4xx_crc.c **** /**
  52:.//FWLIB/src/stm32f4xx_crc.c ****   * @brief  Resets the CRC Data register (DR).
  53:.//FWLIB/src/stm32f4xx_crc.c ****   * @param  None
  54:.//FWLIB/src/stm32f4xx_crc.c ****   * @retval None
  55:.//FWLIB/src/stm32f4xx_crc.c ****   */
  56:.//FWLIB/src/stm32f4xx_crc.c **** void CRC_ResetDR(void)
  57:.//FWLIB/src/stm32f4xx_crc.c **** {
  30              		.loc 1 57 0
  31              		.cfi_startproc
  32              		@ args = 0, pretend = 0, frame = 0
  33              		@ frame_needed = 0, uses_anonymous_args = 0
  34              		@ link register save eliminated.
  58:.//FWLIB/src/stm32f4xx_crc.c ****   /* Reset CRC generator */
  59:.//FWLIB/src/stm32f4xx_crc.c ****   CRC->CR = CRC_CR_RESET;
  35              		.loc 1 59 0
  36 0000 0122     		movs	r2, #1
  37 0002 014B     		ldr	r3, .L2
  38 0004 9A60     		str	r2, [r3, #8]
  39 0006 7047     		bx	lr
  40              	.L3:
  41              		.align	2
  42              	.L2:
  43 0008 00300240 		.word	1073885184
  44              		.cfi_endproc
  45              	.LFE112:
  47              		.section	.text.CRC_CalcCRC,"ax",%progbits
  48              		.align	2
  49              		.global	CRC_CalcCRC
  50              		.thumb
  51              		.thumb_func
  53              	CRC_CalcCRC:
  54              	.LFB113:
  60:.//FWLIB/src/stm32f4xx_crc.c **** }
  61:.//FWLIB/src/stm32f4xx_crc.c **** 
  62:.//FWLIB/src/stm32f4xx_crc.c **** /**
  63:.//FWLIB/src/stm32f4xx_crc.c ****   * @brief  Computes the 32-bit CRC of a given data word(32-bit).
ARM GAS  /var/folders/v3/pl5z0pl12fx5br3g9j_y4ffr0000gn/T//cc9IaKXR.s 			page 3


  64:.//FWLIB/src/stm32f4xx_crc.c ****   * @param  Data: data word(32-bit) to compute its CRC
  65:.//FWLIB/src/stm32f4xx_crc.c ****   * @retval 32-bit CRC
  66:.//FWLIB/src/stm32f4xx_crc.c ****   */
  67:.//FWLIB/src/stm32f4xx_crc.c **** uint32_t CRC_CalcCRC(uint32_t Data)
  68:.//FWLIB/src/stm32f4xx_crc.c **** {
  55              		.loc 1 68 0
  56              		.cfi_startproc
  57              		@ args = 0, pretend = 0, frame = 0
  58              		@ frame_needed = 0, uses_anonymous_args = 0
  59              		@ link register save eliminated.
  60              	.LVL0:
  69:.//FWLIB/src/stm32f4xx_crc.c ****   CRC->DR = Data;
  61              		.loc 1 69 0
  62 0000 014B     		ldr	r3, .L5
  63 0002 1860     		str	r0, [r3]
  70:.//FWLIB/src/stm32f4xx_crc.c ****   
  71:.//FWLIB/src/stm32f4xx_crc.c ****   return (CRC->DR);
  64              		.loc 1 71 0
  65 0004 1868     		ldr	r0, [r3]
  66              	.LVL1:
  72:.//FWLIB/src/stm32f4xx_crc.c **** }
  67              		.loc 1 72 0
  68 0006 7047     		bx	lr
  69              	.L6:
  70              		.align	2
  71              	.L5:
  72 0008 00300240 		.word	1073885184
  73              		.cfi_endproc
  74              	.LFE113:
  76              		.section	.text.CRC_CalcBlockCRC,"ax",%progbits
  77              		.align	2
  78              		.global	CRC_CalcBlockCRC
  79              		.thumb
  80              		.thumb_func
  82              	CRC_CalcBlockCRC:
  83              	.LFB114:
  73:.//FWLIB/src/stm32f4xx_crc.c **** 
  74:.//FWLIB/src/stm32f4xx_crc.c **** /**
  75:.//FWLIB/src/stm32f4xx_crc.c ****   * @brief  Computes the 32-bit CRC of a given buffer of data word(32-bit).
  76:.//FWLIB/src/stm32f4xx_crc.c ****   * @param  pBuffer: pointer to the buffer containing the data to be computed
  77:.//FWLIB/src/stm32f4xx_crc.c ****   * @param  BufferLength: length of the buffer to be computed					
  78:.//FWLIB/src/stm32f4xx_crc.c ****   * @retval 32-bit CRC
  79:.//FWLIB/src/stm32f4xx_crc.c ****   */
  80:.//FWLIB/src/stm32f4xx_crc.c **** uint32_t CRC_CalcBlockCRC(uint32_t pBuffer[], uint32_t BufferLength)
  81:.//FWLIB/src/stm32f4xx_crc.c **** {
  84              		.loc 1 81 0
  85              		.cfi_startproc
  86              		@ args = 0, pretend = 0, frame = 0
  87              		@ frame_needed = 0, uses_anonymous_args = 0
  88              		@ link register save eliminated.
  89              	.LVL2:
  90 0000 10B4     		push	{r4}
  91              	.LCFI0:
  92              		.cfi_def_cfa_offset 4
  93              		.cfi_offset 4, -4
  94              	.LVL3:
  82:.//FWLIB/src/stm32f4xx_crc.c ****   uint32_t index = 0;
ARM GAS  /var/folders/v3/pl5z0pl12fx5br3g9j_y4ffr0000gn/T//cc9IaKXR.s 			page 4


  83:.//FWLIB/src/stm32f4xx_crc.c ****   
  84:.//FWLIB/src/stm32f4xx_crc.c ****   for(index = 0; index < BufferLength; index++)
  95              		.loc 1 84 0
  96 0002 0023     		movs	r3, #0
  97 0004 04E0     		b	.L8
  98              	.LVL4:
  99              	.L9:
  85:.//FWLIB/src/stm32f4xx_crc.c ****   {
  86:.//FWLIB/src/stm32f4xx_crc.c ****     CRC->DR = pBuffer[index];
 100              		.loc 1 86 0 discriminator 3
 101 0006 50F82340 		ldr	r4, [r0, r3, lsl #2]
 102 000a 054A     		ldr	r2, .L11
 103 000c 1460     		str	r4, [r2]
  84:.//FWLIB/src/stm32f4xx_crc.c ****   {
 104              		.loc 1 84 0 discriminator 3
 105 000e 0133     		adds	r3, r3, #1
 106              	.LVL5:
 107              	.L8:
  84:.//FWLIB/src/stm32f4xx_crc.c ****   {
 108              		.loc 1 84 0 is_stmt 0 discriminator 1
 109 0010 8B42     		cmp	r3, r1
 110 0012 F8D3     		bcc	.L9
  87:.//FWLIB/src/stm32f4xx_crc.c ****   }
  88:.//FWLIB/src/stm32f4xx_crc.c ****   return (CRC->DR);
 111              		.loc 1 88 0 is_stmt 1
 112 0014 024B     		ldr	r3, .L11
 113              	.LVL6:
 114 0016 1868     		ldr	r0, [r3]
 115              	.LVL7:
  89:.//FWLIB/src/stm32f4xx_crc.c **** }
 116              		.loc 1 89 0
 117 0018 5DF8044B 		ldr	r4, [sp], #4
 118              	.LCFI1:
 119              		.cfi_restore 4
 120              		.cfi_def_cfa_offset 0
 121 001c 7047     		bx	lr
 122              	.L12:
 123 001e 00BF     		.align	2
 124              	.L11:
 125 0020 00300240 		.word	1073885184
 126              		.cfi_endproc
 127              	.LFE114:
 129              		.section	.text.CRC_GetCRC,"ax",%progbits
 130              		.align	2
 131              		.global	CRC_GetCRC
 132              		.thumb
 133              		.thumb_func
 135              	CRC_GetCRC:
 136              	.LFB115:
  90:.//FWLIB/src/stm32f4xx_crc.c **** 
  91:.//FWLIB/src/stm32f4xx_crc.c **** /**
  92:.//FWLIB/src/stm32f4xx_crc.c ****   * @brief  Returns the current CRC value.
  93:.//FWLIB/src/stm32f4xx_crc.c ****   * @param  None
  94:.//FWLIB/src/stm32f4xx_crc.c ****   * @retval 32-bit CRC
  95:.//FWLIB/src/stm32f4xx_crc.c ****   */
  96:.//FWLIB/src/stm32f4xx_crc.c **** uint32_t CRC_GetCRC(void)
  97:.//FWLIB/src/stm32f4xx_crc.c **** {
ARM GAS  /var/folders/v3/pl5z0pl12fx5br3g9j_y4ffr0000gn/T//cc9IaKXR.s 			page 5


 137              		.loc 1 97 0
 138              		.cfi_startproc
 139              		@ args = 0, pretend = 0, frame = 0
 140              		@ frame_needed = 0, uses_anonymous_args = 0
 141              		@ link register save eliminated.
  98:.//FWLIB/src/stm32f4xx_crc.c ****   return (CRC->DR);
 142              		.loc 1 98 0
 143 0000 014B     		ldr	r3, .L14
 144 0002 1868     		ldr	r0, [r3]
  99:.//FWLIB/src/stm32f4xx_crc.c **** }
 145              		.loc 1 99 0
 146 0004 7047     		bx	lr
 147              	.L15:
 148 0006 00BF     		.align	2
 149              	.L14:
 150 0008 00300240 		.word	1073885184
 151              		.cfi_endproc
 152              	.LFE115:
 154              		.section	.text.CRC_SetIDRegister,"ax",%progbits
 155              		.align	2
 156              		.global	CRC_SetIDRegister
 157              		.thumb
 158              		.thumb_func
 160              	CRC_SetIDRegister:
 161              	.LFB116:
 100:.//FWLIB/src/stm32f4xx_crc.c **** 
 101:.//FWLIB/src/stm32f4xx_crc.c **** /**
 102:.//FWLIB/src/stm32f4xx_crc.c ****   * @brief  Stores a 8-bit data in the Independent Data(ID) register.
 103:.//FWLIB/src/stm32f4xx_crc.c ****   * @param  IDValue: 8-bit value to be stored in the ID register 					
 104:.//FWLIB/src/stm32f4xx_crc.c ****   * @retval None
 105:.//FWLIB/src/stm32f4xx_crc.c ****   */
 106:.//FWLIB/src/stm32f4xx_crc.c **** void CRC_SetIDRegister(uint8_t IDValue)
 107:.//FWLIB/src/stm32f4xx_crc.c **** {
 162              		.loc 1 107 0
 163              		.cfi_startproc
 164              		@ args = 0, pretend = 0, frame = 0
 165              		@ frame_needed = 0, uses_anonymous_args = 0
 166              		@ link register save eliminated.
 167              	.LVL8:
 108:.//FWLIB/src/stm32f4xx_crc.c ****   CRC->IDR = IDValue;
 168              		.loc 1 108 0
 169 0000 014B     		ldr	r3, .L17
 170 0002 1871     		strb	r0, [r3, #4]
 171 0004 7047     		bx	lr
 172              	.L18:
 173 0006 00BF     		.align	2
 174              	.L17:
 175 0008 00300240 		.word	1073885184
 176              		.cfi_endproc
 177              	.LFE116:
 179              		.section	.text.CRC_GetIDRegister,"ax",%progbits
 180              		.align	2
 181              		.global	CRC_GetIDRegister
 182              		.thumb
 183              		.thumb_func
 185              	CRC_GetIDRegister:
 186              	.LFB117:
ARM GAS  /var/folders/v3/pl5z0pl12fx5br3g9j_y4ffr0000gn/T//cc9IaKXR.s 			page 6


 109:.//FWLIB/src/stm32f4xx_crc.c **** }
 110:.//FWLIB/src/stm32f4xx_crc.c **** 
 111:.//FWLIB/src/stm32f4xx_crc.c **** /**
 112:.//FWLIB/src/stm32f4xx_crc.c ****   * @brief  Returns the 8-bit data stored in the Independent Data(ID) register
 113:.//FWLIB/src/stm32f4xx_crc.c ****   * @param  None
 114:.//FWLIB/src/stm32f4xx_crc.c ****   * @retval 8-bit value of the ID register 
 115:.//FWLIB/src/stm32f4xx_crc.c ****   */
 116:.//FWLIB/src/stm32f4xx_crc.c **** uint8_t CRC_GetIDRegister(void)
 117:.//FWLIB/src/stm32f4xx_crc.c **** {
 187              		.loc 1 117 0
 188              		.cfi_startproc
 189              		@ args = 0, pretend = 0, frame = 0
 190              		@ frame_needed = 0, uses_anonymous_args = 0
 191              		@ link register save eliminated.
 118:.//FWLIB/src/stm32f4xx_crc.c ****   return (CRC->IDR);
 192              		.loc 1 118 0
 193 0000 014B     		ldr	r3, .L20
 194 0002 1879     		ldrb	r0, [r3, #4]	@ zero_extendqisi2
 119:.//FWLIB/src/stm32f4xx_crc.c **** }
 195              		.loc 1 119 0
 196 0004 7047     		bx	lr
 197              	.L21:
 198 0006 00BF     		.align	2
 199              	.L20:
 200 0008 00300240 		.word	1073885184
 201              		.cfi_endproc
 202              	.LFE117:
 204              		.text
 205              	.Letext0:
 206              		.file 2 "/Users/ertuil/gcc-arm-none-eabi/arm-none-eabi/include/machine/_default_types.h"
 207              		.file 3 "/Users/ertuil/gcc-arm-none-eabi/arm-none-eabi/include/sys/_stdint.h"
 208              		.file 4 "USER/stm32f4xx.h"
 209              		.file 5 "CORE/core_cm4.h"
ARM GAS  /var/folders/v3/pl5z0pl12fx5br3g9j_y4ffr0000gn/T//cc9IaKXR.s 			page 7

