ARM GAS  /var/folders/v3/pl5z0pl12fx5br3g9j_y4ffr0000gn/T//ccpXcAme.s 			page 1


   1              		.syntax unified
   2              		.cpu cortex-m4
   3              		.eabi_attribute 27, 1
   4              		.eabi_attribute 28, 1
   5              		.fpu fpv4-sp-d16
   6              		.eabi_attribute 20, 1
   7              		.eabi_attribute 21, 1
   8              		.eabi_attribute 23, 3
   9              		.eabi_attribute 24, 1
  10              		.eabi_attribute 25, 1
  11              		.eabi_attribute 26, 1
  12              		.eabi_attribute 30, 1
  13              		.eabi_attribute 34, 1
  14              		.eabi_attribute 18, 4
  15              		.thumb
  16              		.syntax unified
  17              		.file	"stm32f4xx_exti.c"
  18              		.text
  19              	.Ltext0:
  20              		.cfi_sections	.debug_frame
  21              		.section	.text.EXTI_DeInit,"ax",%progbits
  22              		.align	2
  23              		.global	EXTI_DeInit
  24              		.thumb
  25              		.thumb_func
  27              	EXTI_DeInit:
  28              	.LFB112:
  29              		.file 1 ".//FWLIB/src/stm32f4xx_exti.c"
   1:.//FWLIB/src/stm32f4xx_exti.c **** /**
   2:.//FWLIB/src/stm32f4xx_exti.c ****   ******************************************************************************
   3:.//FWLIB/src/stm32f4xx_exti.c ****   * @file    stm32f4xx_exti.c
   4:.//FWLIB/src/stm32f4xx_exti.c ****   * @author  MCD Application Team
   5:.//FWLIB/src/stm32f4xx_exti.c ****   * @version V1.4.0
   6:.//FWLIB/src/stm32f4xx_exti.c ****   * @date    04-August-2014
   7:.//FWLIB/src/stm32f4xx_exti.c ****   * @brief   This file provides firmware functions to manage the following 
   8:.//FWLIB/src/stm32f4xx_exti.c ****   *          functionalities of the EXTI peripheral:           
   9:.//FWLIB/src/stm32f4xx_exti.c ****   *           + Initialization and Configuration
  10:.//FWLIB/src/stm32f4xx_exti.c ****   *           + Interrupts and flags management
  11:.//FWLIB/src/stm32f4xx_exti.c ****   *
  12:.//FWLIB/src/stm32f4xx_exti.c **** @verbatim  
  13:.//FWLIB/src/stm32f4xx_exti.c **** 
  14:.//FWLIB/src/stm32f4xx_exti.c ****  ===============================================================================
  15:.//FWLIB/src/stm32f4xx_exti.c ****                               ##### EXTI features #####
  16:.//FWLIB/src/stm32f4xx_exti.c ****  ===============================================================================
  17:.//FWLIB/src/stm32f4xx_exti.c **** 
  18:.//FWLIB/src/stm32f4xx_exti.c ****  [..] External interrupt/event lines are mapped as following:
  19:.//FWLIB/src/stm32f4xx_exti.c ****    (#) All available GPIO pins are connected to the 16 external 
  20:.//FWLIB/src/stm32f4xx_exti.c ****        interrupt/event lines from EXTI0 to EXTI15.
  21:.//FWLIB/src/stm32f4xx_exti.c ****    (#) EXTI line 16 is connected to the PVD Output
  22:.//FWLIB/src/stm32f4xx_exti.c ****    (#) EXTI line 17 is connected to the RTC Alarm event
  23:.//FWLIB/src/stm32f4xx_exti.c ****    (#) EXTI line 18 is connected to the USB OTG FS Wakeup from suspend event
  24:.//FWLIB/src/stm32f4xx_exti.c ****    (#) EXTI line 19 is connected to the Ethernet Wakeup event
  25:.//FWLIB/src/stm32f4xx_exti.c ****    (#) EXTI line 20 is connected to the USB OTG HS (configured in FS) Wakeup event 
  26:.//FWLIB/src/stm32f4xx_exti.c ****    (#) EXTI line 21 is connected to the RTC Tamper and Time Stamp events
  27:.//FWLIB/src/stm32f4xx_exti.c ****    (#) EXTI line 22 is connected to the RTC Wakeup event
  28:.//FWLIB/src/stm32f4xx_exti.c **** 
  29:.//FWLIB/src/stm32f4xx_exti.c ****                        ##### How to use this driver #####
ARM GAS  /var/folders/v3/pl5z0pl12fx5br3g9j_y4ffr0000gn/T//ccpXcAme.s 			page 2


  30:.//FWLIB/src/stm32f4xx_exti.c ****  ===============================================================================
  31:.//FWLIB/src/stm32f4xx_exti.c ****  
  32:.//FWLIB/src/stm32f4xx_exti.c ****  [..] In order to use an I/O pin as an external interrupt source, follow steps 
  33:.//FWLIB/src/stm32f4xx_exti.c ****       below:
  34:.//FWLIB/src/stm32f4xx_exti.c ****    (#) Configure the I/O in input mode using GPIO_Init()
  35:.//FWLIB/src/stm32f4xx_exti.c ****    (#) Select the input source pin for the EXTI line using SYSCFG_EXTILineConfig()
  36:.//FWLIB/src/stm32f4xx_exti.c ****    (#) Select the mode(interrupt, event) and configure the trigger 
  37:.//FWLIB/src/stm32f4xx_exti.c ****        selection (Rising, falling or both) using EXTI_Init()
  38:.//FWLIB/src/stm32f4xx_exti.c ****    (#) Configure NVIC IRQ channel mapped to the EXTI line using NVIC_Init()
  39:.//FWLIB/src/stm32f4xx_exti.c **** 
  40:.//FWLIB/src/stm32f4xx_exti.c ****  [..]     
  41:.//FWLIB/src/stm32f4xx_exti.c ****    (@) SYSCFG APB clock must be enabled to get write access to SYSCFG_EXTICRx
  42:.//FWLIB/src/stm32f4xx_exti.c ****        registers using RCC_APB2PeriphClockCmd(RCC_APB2Periph_SYSCFG, ENABLE);
  43:.//FWLIB/src/stm32f4xx_exti.c **** 
  44:.//FWLIB/src/stm32f4xx_exti.c **** @endverbatim
  45:.//FWLIB/src/stm32f4xx_exti.c ****   *
  46:.//FWLIB/src/stm32f4xx_exti.c ****   ******************************************************************************
  47:.//FWLIB/src/stm32f4xx_exti.c ****   * @attention
  48:.//FWLIB/src/stm32f4xx_exti.c ****   *
  49:.//FWLIB/src/stm32f4xx_exti.c ****   * <h2><center>&copy; COPYRIGHT 2014 STMicroelectronics</center></h2>
  50:.//FWLIB/src/stm32f4xx_exti.c ****   *
  51:.//FWLIB/src/stm32f4xx_exti.c ****   * Licensed under MCD-ST Liberty SW License Agreement V2, (the "License");
  52:.//FWLIB/src/stm32f4xx_exti.c ****   * You may not use this file except in compliance with the License.
  53:.//FWLIB/src/stm32f4xx_exti.c ****   * You may obtain a copy of the License at:
  54:.//FWLIB/src/stm32f4xx_exti.c ****   *
  55:.//FWLIB/src/stm32f4xx_exti.c ****   *        http://www.st.com/software_license_agreement_liberty_v2
  56:.//FWLIB/src/stm32f4xx_exti.c ****   *
  57:.//FWLIB/src/stm32f4xx_exti.c ****   * Unless required by applicable law or agreed to in writing, software 
  58:.//FWLIB/src/stm32f4xx_exti.c ****   * distributed under the License is distributed on an "AS IS" BASIS, 
  59:.//FWLIB/src/stm32f4xx_exti.c ****   * WITHOUT WARRANTIES OR CONDITIONS OF ANY KIND, either express or implied.
  60:.//FWLIB/src/stm32f4xx_exti.c ****   * See the License for the specific language governing permissions and
  61:.//FWLIB/src/stm32f4xx_exti.c ****   * limitations under the License.
  62:.//FWLIB/src/stm32f4xx_exti.c ****   *
  63:.//FWLIB/src/stm32f4xx_exti.c ****   ******************************************************************************
  64:.//FWLIB/src/stm32f4xx_exti.c ****   */
  65:.//FWLIB/src/stm32f4xx_exti.c **** 
  66:.//FWLIB/src/stm32f4xx_exti.c **** /* Includes ------------------------------------------------------------------*/
  67:.//FWLIB/src/stm32f4xx_exti.c **** #include "stm32f4xx_exti.h"
  68:.//FWLIB/src/stm32f4xx_exti.c **** 
  69:.//FWLIB/src/stm32f4xx_exti.c **** /** @addtogroup STM32F4xx_StdPeriph_Driver
  70:.//FWLIB/src/stm32f4xx_exti.c ****   * @{
  71:.//FWLIB/src/stm32f4xx_exti.c ****   */
  72:.//FWLIB/src/stm32f4xx_exti.c **** 
  73:.//FWLIB/src/stm32f4xx_exti.c **** /** @defgroup EXTI 
  74:.//FWLIB/src/stm32f4xx_exti.c ****   * @brief EXTI driver modules
  75:.//FWLIB/src/stm32f4xx_exti.c ****   * @{
  76:.//FWLIB/src/stm32f4xx_exti.c ****   */
  77:.//FWLIB/src/stm32f4xx_exti.c **** 
  78:.//FWLIB/src/stm32f4xx_exti.c **** /* Private typedef -----------------------------------------------------------*/
  79:.//FWLIB/src/stm32f4xx_exti.c **** /* Private define ------------------------------------------------------------*/
  80:.//FWLIB/src/stm32f4xx_exti.c **** 
  81:.//FWLIB/src/stm32f4xx_exti.c **** #define EXTI_LINENONE    ((uint32_t)0x00000)  /* No interrupt selected */
  82:.//FWLIB/src/stm32f4xx_exti.c **** 
  83:.//FWLIB/src/stm32f4xx_exti.c **** /* Private macro -------------------------------------------------------------*/
  84:.//FWLIB/src/stm32f4xx_exti.c **** /* Private variables ---------------------------------------------------------*/
  85:.//FWLIB/src/stm32f4xx_exti.c **** /* Private function prototypes -----------------------------------------------*/
  86:.//FWLIB/src/stm32f4xx_exti.c **** /* Private functions ---------------------------------------------------------*/
ARM GAS  /var/folders/v3/pl5z0pl12fx5br3g9j_y4ffr0000gn/T//ccpXcAme.s 			page 3


  87:.//FWLIB/src/stm32f4xx_exti.c **** 
  88:.//FWLIB/src/stm32f4xx_exti.c **** /** @defgroup EXTI_Private_Functions
  89:.//FWLIB/src/stm32f4xx_exti.c ****   * @{
  90:.//FWLIB/src/stm32f4xx_exti.c ****   */
  91:.//FWLIB/src/stm32f4xx_exti.c **** 
  92:.//FWLIB/src/stm32f4xx_exti.c **** /** @defgroup EXTI_Group1 Initialization and Configuration functions
  93:.//FWLIB/src/stm32f4xx_exti.c ****  *  @brief   Initialization and Configuration functions 
  94:.//FWLIB/src/stm32f4xx_exti.c ****  *
  95:.//FWLIB/src/stm32f4xx_exti.c **** @verbatim   
  96:.//FWLIB/src/stm32f4xx_exti.c ****  ===============================================================================
  97:.//FWLIB/src/stm32f4xx_exti.c ****              ##### Initialization and Configuration functions #####
  98:.//FWLIB/src/stm32f4xx_exti.c ****  ===============================================================================
  99:.//FWLIB/src/stm32f4xx_exti.c **** 
 100:.//FWLIB/src/stm32f4xx_exti.c **** @endverbatim
 101:.//FWLIB/src/stm32f4xx_exti.c ****   * @{
 102:.//FWLIB/src/stm32f4xx_exti.c ****   */
 103:.//FWLIB/src/stm32f4xx_exti.c **** 
 104:.//FWLIB/src/stm32f4xx_exti.c **** /**
 105:.//FWLIB/src/stm32f4xx_exti.c ****   * @brief  Deinitializes the EXTI peripheral registers to their default reset values.
 106:.//FWLIB/src/stm32f4xx_exti.c ****   * @param  None
 107:.//FWLIB/src/stm32f4xx_exti.c ****   * @retval None
 108:.//FWLIB/src/stm32f4xx_exti.c ****   */
 109:.//FWLIB/src/stm32f4xx_exti.c **** void EXTI_DeInit(void)
 110:.//FWLIB/src/stm32f4xx_exti.c **** {
  30              		.loc 1 110 0
  31              		.cfi_startproc
  32              		@ args = 0, pretend = 0, frame = 0
  33              		@ frame_needed = 0, uses_anonymous_args = 0
  34              		@ link register save eliminated.
 111:.//FWLIB/src/stm32f4xx_exti.c ****   EXTI->IMR = 0x00000000;
  35              		.loc 1 111 0
  36 0000 044B     		ldr	r3, .L2
  37 0002 0022     		movs	r2, #0
  38 0004 1A60     		str	r2, [r3]
 112:.//FWLIB/src/stm32f4xx_exti.c ****   EXTI->EMR = 0x00000000;
  39              		.loc 1 112 0
  40 0006 5A60     		str	r2, [r3, #4]
 113:.//FWLIB/src/stm32f4xx_exti.c ****   EXTI->RTSR = 0x00000000;
  41              		.loc 1 113 0
  42 0008 9A60     		str	r2, [r3, #8]
 114:.//FWLIB/src/stm32f4xx_exti.c ****   EXTI->FTSR = 0x00000000;
  43              		.loc 1 114 0
  44 000a DA60     		str	r2, [r3, #12]
 115:.//FWLIB/src/stm32f4xx_exti.c ****   EXTI->PR = 0x007FFFFF;
  45              		.loc 1 115 0
  46 000c 024A     		ldr	r2, .L2+4
  47 000e 5A61     		str	r2, [r3, #20]
  48 0010 7047     		bx	lr
  49              	.L3:
  50 0012 00BF     		.align	2
  51              	.L2:
  52 0014 003C0140 		.word	1073822720
  53 0018 FFFF7F00 		.word	8388607
  54              		.cfi_endproc
  55              	.LFE112:
  57              		.section	.text.EXTI_Init,"ax",%progbits
  58              		.align	2
ARM GAS  /var/folders/v3/pl5z0pl12fx5br3g9j_y4ffr0000gn/T//ccpXcAme.s 			page 4


  59              		.global	EXTI_Init
  60              		.thumb
  61              		.thumb_func
  63              	EXTI_Init:
  64              	.LFB113:
 116:.//FWLIB/src/stm32f4xx_exti.c **** }
 117:.//FWLIB/src/stm32f4xx_exti.c **** 
 118:.//FWLIB/src/stm32f4xx_exti.c **** /**
 119:.//FWLIB/src/stm32f4xx_exti.c ****   * @brief  Initializes the EXTI peripheral according to the specified
 120:.//FWLIB/src/stm32f4xx_exti.c ****   *         parameters in the EXTI_InitStruct.
 121:.//FWLIB/src/stm32f4xx_exti.c ****   * @param  EXTI_InitStruct: pointer to a EXTI_InitTypeDef structure
 122:.//FWLIB/src/stm32f4xx_exti.c ****   *         that contains the configuration information for the EXTI peripheral.
 123:.//FWLIB/src/stm32f4xx_exti.c ****   * @retval None
 124:.//FWLIB/src/stm32f4xx_exti.c ****   */
 125:.//FWLIB/src/stm32f4xx_exti.c **** void EXTI_Init(EXTI_InitTypeDef* EXTI_InitStruct)
 126:.//FWLIB/src/stm32f4xx_exti.c **** {
  65              		.loc 1 126 0
  66              		.cfi_startproc
  67              		@ args = 0, pretend = 0, frame = 0
  68              		@ frame_needed = 0, uses_anonymous_args = 0
  69              		@ link register save eliminated.
  70              	.LVL0:
 127:.//FWLIB/src/stm32f4xx_exti.c ****   uint32_t tmp = 0;
 128:.//FWLIB/src/stm32f4xx_exti.c **** 
 129:.//FWLIB/src/stm32f4xx_exti.c ****   /* Check the parameters */
 130:.//FWLIB/src/stm32f4xx_exti.c ****   assert_param(IS_EXTI_MODE(EXTI_InitStruct->EXTI_Mode));
 131:.//FWLIB/src/stm32f4xx_exti.c ****   assert_param(IS_EXTI_TRIGGER(EXTI_InitStruct->EXTI_Trigger));
 132:.//FWLIB/src/stm32f4xx_exti.c ****   assert_param(IS_EXTI_LINE(EXTI_InitStruct->EXTI_Line));  
 133:.//FWLIB/src/stm32f4xx_exti.c ****   assert_param(IS_FUNCTIONAL_STATE(EXTI_InitStruct->EXTI_LineCmd));
 134:.//FWLIB/src/stm32f4xx_exti.c **** 
 135:.//FWLIB/src/stm32f4xx_exti.c ****   tmp = (uint32_t)EXTI_BASE;
 136:.//FWLIB/src/stm32f4xx_exti.c ****      
 137:.//FWLIB/src/stm32f4xx_exti.c ****   if (EXTI_InitStruct->EXTI_LineCmd != DISABLE)
  71              		.loc 1 137 0
  72 0000 8379     		ldrb	r3, [r0, #6]	@ zero_extendqisi2
  73 0002 002B     		cmp	r3, #0
  74 0004 34D0     		beq	.L5
 126:.//FWLIB/src/stm32f4xx_exti.c ****   uint32_t tmp = 0;
  75              		.loc 1 126 0
  76 0006 10B4     		push	{r4}
  77              	.LCFI0:
  78              		.cfi_def_cfa_offset 4
  79              		.cfi_offset 4, -4
 138:.//FWLIB/src/stm32f4xx_exti.c ****   {
 139:.//FWLIB/src/stm32f4xx_exti.c ****     /* Clear EXTI line configuration */
 140:.//FWLIB/src/stm32f4xx_exti.c ****     EXTI->IMR &= ~EXTI_InitStruct->EXTI_Line;
  80              		.loc 1 140 0
  81 0008 204B     		ldr	r3, .L10
  82 000a 1A68     		ldr	r2, [r3]
  83 000c 0168     		ldr	r1, [r0]
  84 000e 22EA0102 		bic	r2, r2, r1
  85 0012 1A60     		str	r2, [r3]
 141:.//FWLIB/src/stm32f4xx_exti.c ****     EXTI->EMR &= ~EXTI_InitStruct->EXTI_Line;
  86              		.loc 1 141 0
  87 0014 5A68     		ldr	r2, [r3, #4]
  88 0016 0168     		ldr	r1, [r0]
  89 0018 22EA0102 		bic	r2, r2, r1
ARM GAS  /var/folders/v3/pl5z0pl12fx5br3g9j_y4ffr0000gn/T//ccpXcAme.s 			page 5


  90 001c 5A60     		str	r2, [r3, #4]
 142:.//FWLIB/src/stm32f4xx_exti.c ****     
 143:.//FWLIB/src/stm32f4xx_exti.c ****     tmp += EXTI_InitStruct->EXTI_Mode;
  91              		.loc 1 143 0
  92 001e 0279     		ldrb	r2, [r0, #4]	@ zero_extendqisi2
  93 0020 02F18042 		add	r2, r2, #1073741824
  94 0024 02F59E32 		add	r2, r2, #80896
  95              	.LVL1:
 144:.//FWLIB/src/stm32f4xx_exti.c **** 
 145:.//FWLIB/src/stm32f4xx_exti.c ****     *(__IO uint32_t *) tmp |= EXTI_InitStruct->EXTI_Line;
  96              		.loc 1 145 0
  97 0028 1468     		ldr	r4, [r2]
  98 002a 0168     		ldr	r1, [r0]
  99 002c 2143     		orrs	r1, r1, r4
 100 002e 1160     		str	r1, [r2]
 146:.//FWLIB/src/stm32f4xx_exti.c **** 
 147:.//FWLIB/src/stm32f4xx_exti.c ****     /* Clear Rising Falling edge configuration */
 148:.//FWLIB/src/stm32f4xx_exti.c ****     EXTI->RTSR &= ~EXTI_InitStruct->EXTI_Line;
 101              		.loc 1 148 0
 102 0030 9A68     		ldr	r2, [r3, #8]
 103              	.LVL2:
 104 0032 0168     		ldr	r1, [r0]
 105 0034 22EA0102 		bic	r2, r2, r1
 106 0038 9A60     		str	r2, [r3, #8]
 149:.//FWLIB/src/stm32f4xx_exti.c ****     EXTI->FTSR &= ~EXTI_InitStruct->EXTI_Line;
 107              		.loc 1 149 0
 108 003a DA68     		ldr	r2, [r3, #12]
 109 003c 0168     		ldr	r1, [r0]
 110 003e 22EA0102 		bic	r2, r2, r1
 111 0042 DA60     		str	r2, [r3, #12]
 150:.//FWLIB/src/stm32f4xx_exti.c ****     
 151:.//FWLIB/src/stm32f4xx_exti.c ****     /* Select the trigger for the selected external interrupts */
 152:.//FWLIB/src/stm32f4xx_exti.c ****     if (EXTI_InitStruct->EXTI_Trigger == EXTI_Trigger_Rising_Falling)
 112              		.loc 1 152 0
 113 0044 4379     		ldrb	r3, [r0, #5]	@ zero_extendqisi2
 114 0046 102B     		cmp	r3, #16
 115 0048 09D1     		bne	.L6
 153:.//FWLIB/src/stm32f4xx_exti.c ****     {
 154:.//FWLIB/src/stm32f4xx_exti.c ****       /* Rising Falling edge */
 155:.//FWLIB/src/stm32f4xx_exti.c ****       EXTI->RTSR |= EXTI_InitStruct->EXTI_Line;
 116              		.loc 1 155 0
 117 004a 104B     		ldr	r3, .L10
 118 004c 9968     		ldr	r1, [r3, #8]
 119 004e 0268     		ldr	r2, [r0]
 120 0050 0A43     		orrs	r2, r2, r1
 121 0052 9A60     		str	r2, [r3, #8]
 156:.//FWLIB/src/stm32f4xx_exti.c ****       EXTI->FTSR |= EXTI_InitStruct->EXTI_Line;
 122              		.loc 1 156 0
 123 0054 D968     		ldr	r1, [r3, #12]
 124 0056 0268     		ldr	r2, [r0]
 125 0058 0A43     		orrs	r2, r2, r1
 126 005a DA60     		str	r2, [r3, #12]
 127 005c 13E0     		b	.L4
 128              	.L6:
 129              	.LVL3:
 157:.//FWLIB/src/stm32f4xx_exti.c ****     }
 158:.//FWLIB/src/stm32f4xx_exti.c ****     else
ARM GAS  /var/folders/v3/pl5z0pl12fx5br3g9j_y4ffr0000gn/T//ccpXcAme.s 			page 6


 159:.//FWLIB/src/stm32f4xx_exti.c ****     {
 160:.//FWLIB/src/stm32f4xx_exti.c ****       tmp = (uint32_t)EXTI_BASE;
 161:.//FWLIB/src/stm32f4xx_exti.c ****       tmp += EXTI_InitStruct->EXTI_Trigger;
 130              		.loc 1 161 0
 131 005e 03F18043 		add	r3, r3, #1073741824
 132 0062 03F59E33 		add	r3, r3, #80896
 133              	.LVL4:
 162:.//FWLIB/src/stm32f4xx_exti.c **** 
 163:.//FWLIB/src/stm32f4xx_exti.c ****       *(__IO uint32_t *) tmp |= EXTI_InitStruct->EXTI_Line;
 134              		.loc 1 163 0
 135 0066 1968     		ldr	r1, [r3]
 136 0068 0268     		ldr	r2, [r0]
 137 006a 0A43     		orrs	r2, r2, r1
 138 006c 1A60     		str	r2, [r3]
 139 006e 0AE0     		b	.L4
 140              	.LVL5:
 141              	.L5:
 142              	.LCFI1:
 143              		.cfi_def_cfa_offset 0
 144              		.cfi_restore 4
 164:.//FWLIB/src/stm32f4xx_exti.c ****     }
 165:.//FWLIB/src/stm32f4xx_exti.c ****   }
 166:.//FWLIB/src/stm32f4xx_exti.c ****   else
 167:.//FWLIB/src/stm32f4xx_exti.c ****   {
 168:.//FWLIB/src/stm32f4xx_exti.c ****     tmp += EXTI_InitStruct->EXTI_Mode;
 145              		.loc 1 168 0
 146 0070 0379     		ldrb	r3, [r0, #4]	@ zero_extendqisi2
 147 0072 03F18043 		add	r3, r3, #1073741824
 148 0076 03F59E33 		add	r3, r3, #80896
 149              	.LVL6:
 169:.//FWLIB/src/stm32f4xx_exti.c **** 
 170:.//FWLIB/src/stm32f4xx_exti.c ****     /* Disable the selected external lines */
 171:.//FWLIB/src/stm32f4xx_exti.c ****     *(__IO uint32_t *) tmp &= ~EXTI_InitStruct->EXTI_Line;
 150              		.loc 1 171 0
 151 007a 1A68     		ldr	r2, [r3]
 152 007c 0168     		ldr	r1, [r0]
 153 007e 22EA0102 		bic	r2, r2, r1
 154 0082 1A60     		str	r2, [r3]
 172:.//FWLIB/src/stm32f4xx_exti.c ****   }
 173:.//FWLIB/src/stm32f4xx_exti.c **** }
 155              		.loc 1 173 0
 156 0084 7047     		bx	lr
 157              	.LVL7:
 158              	.L4:
 159              	.LCFI2:
 160              		.cfi_def_cfa_offset 4
 161              		.cfi_offset 4, -4
 162 0086 5DF8044B 		ldr	r4, [sp], #4
 163              	.LCFI3:
 164              		.cfi_restore 4
 165              		.cfi_def_cfa_offset 0
 166 008a 7047     		bx	lr
 167              	.L11:
 168              		.align	2
 169              	.L10:
 170 008c 003C0140 		.word	1073822720
 171              		.cfi_endproc
ARM GAS  /var/folders/v3/pl5z0pl12fx5br3g9j_y4ffr0000gn/T//ccpXcAme.s 			page 7


 172              	.LFE113:
 174              		.section	.text.EXTI_StructInit,"ax",%progbits
 175              		.align	2
 176              		.global	EXTI_StructInit
 177              		.thumb
 178              		.thumb_func
 180              	EXTI_StructInit:
 181              	.LFB114:
 174:.//FWLIB/src/stm32f4xx_exti.c **** 
 175:.//FWLIB/src/stm32f4xx_exti.c **** /**
 176:.//FWLIB/src/stm32f4xx_exti.c ****   * @brief  Fills each EXTI_InitStruct member with its reset value.
 177:.//FWLIB/src/stm32f4xx_exti.c ****   * @param  EXTI_InitStruct: pointer to a EXTI_InitTypeDef structure which will
 178:.//FWLIB/src/stm32f4xx_exti.c ****   *         be initialized.
 179:.//FWLIB/src/stm32f4xx_exti.c ****   * @retval None
 180:.//FWLIB/src/stm32f4xx_exti.c ****   */
 181:.//FWLIB/src/stm32f4xx_exti.c **** void EXTI_StructInit(EXTI_InitTypeDef* EXTI_InitStruct)
 182:.//FWLIB/src/stm32f4xx_exti.c **** {
 182              		.loc 1 182 0
 183              		.cfi_startproc
 184              		@ args = 0, pretend = 0, frame = 0
 185              		@ frame_needed = 0, uses_anonymous_args = 0
 186              		@ link register save eliminated.
 187              	.LVL8:
 183:.//FWLIB/src/stm32f4xx_exti.c ****   EXTI_InitStruct->EXTI_Line = EXTI_LINENONE;
 188              		.loc 1 183 0
 189 0000 0023     		movs	r3, #0
 190 0002 0360     		str	r3, [r0]
 184:.//FWLIB/src/stm32f4xx_exti.c ****   EXTI_InitStruct->EXTI_Mode = EXTI_Mode_Interrupt;
 191              		.loc 1 184 0
 192 0004 0371     		strb	r3, [r0, #4]
 185:.//FWLIB/src/stm32f4xx_exti.c ****   EXTI_InitStruct->EXTI_Trigger = EXTI_Trigger_Falling;
 193              		.loc 1 185 0
 194 0006 0C22     		movs	r2, #12
 195 0008 4271     		strb	r2, [r0, #5]
 186:.//FWLIB/src/stm32f4xx_exti.c ****   EXTI_InitStruct->EXTI_LineCmd = DISABLE;
 196              		.loc 1 186 0
 197 000a 8371     		strb	r3, [r0, #6]
 198 000c 7047     		bx	lr
 199              		.cfi_endproc
 200              	.LFE114:
 202 000e 00BF     		.section	.text.EXTI_GenerateSWInterrupt,"ax",%progbits
 203              		.align	2
 204              		.global	EXTI_GenerateSWInterrupt
 205              		.thumb
 206              		.thumb_func
 208              	EXTI_GenerateSWInterrupt:
 209              	.LFB115:
 187:.//FWLIB/src/stm32f4xx_exti.c **** }
 188:.//FWLIB/src/stm32f4xx_exti.c **** 
 189:.//FWLIB/src/stm32f4xx_exti.c **** /**
 190:.//FWLIB/src/stm32f4xx_exti.c ****   * @brief  Generates a Software interrupt on selected EXTI line.
 191:.//FWLIB/src/stm32f4xx_exti.c ****   * @param  EXTI_Line: specifies the EXTI line on which the software interrupt
 192:.//FWLIB/src/stm32f4xx_exti.c ****   *         will be generated.
 193:.//FWLIB/src/stm32f4xx_exti.c ****   *         This parameter can be any combination of EXTI_Linex where x can be (0..22)
 194:.//FWLIB/src/stm32f4xx_exti.c ****   * @retval None
 195:.//FWLIB/src/stm32f4xx_exti.c ****   */
 196:.//FWLIB/src/stm32f4xx_exti.c **** void EXTI_GenerateSWInterrupt(uint32_t EXTI_Line)
ARM GAS  /var/folders/v3/pl5z0pl12fx5br3g9j_y4ffr0000gn/T//ccpXcAme.s 			page 8


 197:.//FWLIB/src/stm32f4xx_exti.c **** {
 210              		.loc 1 197 0
 211              		.cfi_startproc
 212              		@ args = 0, pretend = 0, frame = 0
 213              		@ frame_needed = 0, uses_anonymous_args = 0
 214              		@ link register save eliminated.
 215              	.LVL9:
 198:.//FWLIB/src/stm32f4xx_exti.c ****   /* Check the parameters */
 199:.//FWLIB/src/stm32f4xx_exti.c ****   assert_param(IS_EXTI_LINE(EXTI_Line));
 200:.//FWLIB/src/stm32f4xx_exti.c ****   
 201:.//FWLIB/src/stm32f4xx_exti.c ****   EXTI->SWIER |= EXTI_Line;
 216              		.loc 1 201 0
 217 0000 024A     		ldr	r2, .L14
 218 0002 1369     		ldr	r3, [r2, #16]
 219 0004 1843     		orrs	r0, r0, r3
 220              	.LVL10:
 221 0006 1061     		str	r0, [r2, #16]
 222 0008 7047     		bx	lr
 223              	.L15:
 224 000a 00BF     		.align	2
 225              	.L14:
 226 000c 003C0140 		.word	1073822720
 227              		.cfi_endproc
 228              	.LFE115:
 230              		.section	.text.EXTI_GetFlagStatus,"ax",%progbits
 231              		.align	2
 232              		.global	EXTI_GetFlagStatus
 233              		.thumb
 234              		.thumb_func
 236              	EXTI_GetFlagStatus:
 237              	.LFB116:
 202:.//FWLIB/src/stm32f4xx_exti.c **** }
 203:.//FWLIB/src/stm32f4xx_exti.c **** 
 204:.//FWLIB/src/stm32f4xx_exti.c **** /**
 205:.//FWLIB/src/stm32f4xx_exti.c ****   * @}
 206:.//FWLIB/src/stm32f4xx_exti.c ****   */
 207:.//FWLIB/src/stm32f4xx_exti.c **** 
 208:.//FWLIB/src/stm32f4xx_exti.c **** /** @defgroup EXTI_Group2 Interrupts and flags management functions
 209:.//FWLIB/src/stm32f4xx_exti.c ****  *  @brief   Interrupts and flags management functions 
 210:.//FWLIB/src/stm32f4xx_exti.c ****  *
 211:.//FWLIB/src/stm32f4xx_exti.c **** @verbatim   
 212:.//FWLIB/src/stm32f4xx_exti.c ****  ===============================================================================
 213:.//FWLIB/src/stm32f4xx_exti.c ****              ##### Interrupts and flags management functions #####
 214:.//FWLIB/src/stm32f4xx_exti.c ****  ===============================================================================
 215:.//FWLIB/src/stm32f4xx_exti.c **** 
 216:.//FWLIB/src/stm32f4xx_exti.c **** @endverbatim
 217:.//FWLIB/src/stm32f4xx_exti.c ****   * @{
 218:.//FWLIB/src/stm32f4xx_exti.c ****   */
 219:.//FWLIB/src/stm32f4xx_exti.c **** 
 220:.//FWLIB/src/stm32f4xx_exti.c **** /**
 221:.//FWLIB/src/stm32f4xx_exti.c ****   * @brief  Checks whether the specified EXTI line flag is set or not.
 222:.//FWLIB/src/stm32f4xx_exti.c ****   * @param  EXTI_Line: specifies the EXTI line flag to check.
 223:.//FWLIB/src/stm32f4xx_exti.c ****   *          This parameter can be EXTI_Linex where x can be(0..22)
 224:.//FWLIB/src/stm32f4xx_exti.c ****   * @retval The new state of EXTI_Line (SET or RESET).
 225:.//FWLIB/src/stm32f4xx_exti.c ****   */
 226:.//FWLIB/src/stm32f4xx_exti.c **** FlagStatus EXTI_GetFlagStatus(uint32_t EXTI_Line)
 227:.//FWLIB/src/stm32f4xx_exti.c **** {
ARM GAS  /var/folders/v3/pl5z0pl12fx5br3g9j_y4ffr0000gn/T//ccpXcAme.s 			page 9


 238              		.loc 1 227 0
 239              		.cfi_startproc
 240              		@ args = 0, pretend = 0, frame = 0
 241              		@ frame_needed = 0, uses_anonymous_args = 0
 242              		@ link register save eliminated.
 243              	.LVL11:
 228:.//FWLIB/src/stm32f4xx_exti.c ****   FlagStatus bitstatus = RESET;
 229:.//FWLIB/src/stm32f4xx_exti.c ****   /* Check the parameters */
 230:.//FWLIB/src/stm32f4xx_exti.c ****   assert_param(IS_GET_EXTI_LINE(EXTI_Line));
 231:.//FWLIB/src/stm32f4xx_exti.c ****   
 232:.//FWLIB/src/stm32f4xx_exti.c ****   if ((EXTI->PR & EXTI_Line) != (uint32_t)RESET)
 244              		.loc 1 232 0
 245 0000 034B     		ldr	r3, .L19
 246 0002 5B69     		ldr	r3, [r3, #20]
 247 0004 0342     		tst	r3, r0
 248 0006 01D0     		beq	.L18
 233:.//FWLIB/src/stm32f4xx_exti.c ****   {
 234:.//FWLIB/src/stm32f4xx_exti.c ****     bitstatus = SET;
 249              		.loc 1 234 0
 250 0008 0120     		movs	r0, #1
 251              	.LVL12:
 252 000a 7047     		bx	lr
 253              	.LVL13:
 254              	.L18:
 235:.//FWLIB/src/stm32f4xx_exti.c ****   }
 236:.//FWLIB/src/stm32f4xx_exti.c ****   else
 237:.//FWLIB/src/stm32f4xx_exti.c ****   {
 238:.//FWLIB/src/stm32f4xx_exti.c ****     bitstatus = RESET;
 255              		.loc 1 238 0
 256 000c 0020     		movs	r0, #0
 257              	.LVL14:
 239:.//FWLIB/src/stm32f4xx_exti.c ****   }
 240:.//FWLIB/src/stm32f4xx_exti.c ****   return bitstatus;
 241:.//FWLIB/src/stm32f4xx_exti.c **** }
 258              		.loc 1 241 0
 259 000e 7047     		bx	lr
 260              	.L20:
 261              		.align	2
 262              	.L19:
 263 0010 003C0140 		.word	1073822720
 264              		.cfi_endproc
 265              	.LFE116:
 267              		.section	.text.EXTI_ClearFlag,"ax",%progbits
 268              		.align	2
 269              		.global	EXTI_ClearFlag
 270              		.thumb
 271              		.thumb_func
 273              	EXTI_ClearFlag:
 274              	.LFB117:
 242:.//FWLIB/src/stm32f4xx_exti.c **** 
 243:.//FWLIB/src/stm32f4xx_exti.c **** /**
 244:.//FWLIB/src/stm32f4xx_exti.c ****   * @brief  Clears the EXTI's line pending flags.
 245:.//FWLIB/src/stm32f4xx_exti.c ****   * @param  EXTI_Line: specifies the EXTI lines flags to clear.
 246:.//FWLIB/src/stm32f4xx_exti.c ****   *          This parameter can be any combination of EXTI_Linex where x can be (0..22)
 247:.//FWLIB/src/stm32f4xx_exti.c ****   * @retval None
 248:.//FWLIB/src/stm32f4xx_exti.c ****   */
 249:.//FWLIB/src/stm32f4xx_exti.c **** void EXTI_ClearFlag(uint32_t EXTI_Line)
ARM GAS  /var/folders/v3/pl5z0pl12fx5br3g9j_y4ffr0000gn/T//ccpXcAme.s 			page 10


 250:.//FWLIB/src/stm32f4xx_exti.c **** {
 275              		.loc 1 250 0
 276              		.cfi_startproc
 277              		@ args = 0, pretend = 0, frame = 0
 278              		@ frame_needed = 0, uses_anonymous_args = 0
 279              		@ link register save eliminated.
 280              	.LVL15:
 251:.//FWLIB/src/stm32f4xx_exti.c ****   /* Check the parameters */
 252:.//FWLIB/src/stm32f4xx_exti.c ****   assert_param(IS_EXTI_LINE(EXTI_Line));
 253:.//FWLIB/src/stm32f4xx_exti.c ****   
 254:.//FWLIB/src/stm32f4xx_exti.c ****   EXTI->PR = EXTI_Line;
 281              		.loc 1 254 0
 282 0000 014B     		ldr	r3, .L22
 283 0002 5861     		str	r0, [r3, #20]
 284 0004 7047     		bx	lr
 285              	.L23:
 286 0006 00BF     		.align	2
 287              	.L22:
 288 0008 003C0140 		.word	1073822720
 289              		.cfi_endproc
 290              	.LFE117:
 292              		.section	.text.EXTI_GetITStatus,"ax",%progbits
 293              		.align	2
 294              		.global	EXTI_GetITStatus
 295              		.thumb
 296              		.thumb_func
 298              	EXTI_GetITStatus:
 299              	.LFB118:
 255:.//FWLIB/src/stm32f4xx_exti.c **** }
 256:.//FWLIB/src/stm32f4xx_exti.c **** 
 257:.//FWLIB/src/stm32f4xx_exti.c **** /**
 258:.//FWLIB/src/stm32f4xx_exti.c ****   * @brief  Checks whether the specified EXTI line is asserted or not.
 259:.//FWLIB/src/stm32f4xx_exti.c ****   * @param  EXTI_Line: specifies the EXTI line to check.
 260:.//FWLIB/src/stm32f4xx_exti.c ****   *          This parameter can be EXTI_Linex where x can be(0..22)
 261:.//FWLIB/src/stm32f4xx_exti.c ****   * @retval The new state of EXTI_Line (SET or RESET).
 262:.//FWLIB/src/stm32f4xx_exti.c ****   */
 263:.//FWLIB/src/stm32f4xx_exti.c **** ITStatus EXTI_GetITStatus(uint32_t EXTI_Line)
 264:.//FWLIB/src/stm32f4xx_exti.c **** {
 300              		.loc 1 264 0
 301              		.cfi_startproc
 302              		@ args = 0, pretend = 0, frame = 0
 303              		@ frame_needed = 0, uses_anonymous_args = 0
 304              		@ link register save eliminated.
 305              	.LVL16:
 265:.//FWLIB/src/stm32f4xx_exti.c ****   FlagStatus bitstatus = RESET;
 266:.//FWLIB/src/stm32f4xx_exti.c ****   /* Check the parameters */
 267:.//FWLIB/src/stm32f4xx_exti.c ****   assert_param(IS_GET_EXTI_LINE(EXTI_Line));
 268:.//FWLIB/src/stm32f4xx_exti.c ****   
 269:.//FWLIB/src/stm32f4xx_exti.c ****   if ((EXTI->PR & EXTI_Line) != (uint32_t)RESET)
 306              		.loc 1 269 0
 307 0000 034B     		ldr	r3, .L27
 308 0002 5B69     		ldr	r3, [r3, #20]
 309 0004 0342     		tst	r3, r0
 310 0006 01D0     		beq	.L26
 270:.//FWLIB/src/stm32f4xx_exti.c ****   {
 271:.//FWLIB/src/stm32f4xx_exti.c ****     bitstatus = SET;
 311              		.loc 1 271 0
ARM GAS  /var/folders/v3/pl5z0pl12fx5br3g9j_y4ffr0000gn/T//ccpXcAme.s 			page 11


 312 0008 0120     		movs	r0, #1
 313              	.LVL17:
 314 000a 7047     		bx	lr
 315              	.LVL18:
 316              	.L26:
 272:.//FWLIB/src/stm32f4xx_exti.c ****   }
 273:.//FWLIB/src/stm32f4xx_exti.c ****   else
 274:.//FWLIB/src/stm32f4xx_exti.c ****   {
 275:.//FWLIB/src/stm32f4xx_exti.c ****     bitstatus = RESET;
 317              		.loc 1 275 0
 318 000c 0020     		movs	r0, #0
 319              	.LVL19:
 276:.//FWLIB/src/stm32f4xx_exti.c ****   }
 277:.//FWLIB/src/stm32f4xx_exti.c ****   return bitstatus;
 278:.//FWLIB/src/stm32f4xx_exti.c ****   
 279:.//FWLIB/src/stm32f4xx_exti.c **** }
 320              		.loc 1 279 0
 321 000e 7047     		bx	lr
 322              	.L28:
 323              		.align	2
 324              	.L27:
 325 0010 003C0140 		.word	1073822720
 326              		.cfi_endproc
 327              	.LFE118:
 329              		.section	.text.EXTI_ClearITPendingBit,"ax",%progbits
 330              		.align	2
 331              		.global	EXTI_ClearITPendingBit
 332              		.thumb
 333              		.thumb_func
 335              	EXTI_ClearITPendingBit:
 336              	.LFB119:
 280:.//FWLIB/src/stm32f4xx_exti.c **** 
 281:.//FWLIB/src/stm32f4xx_exti.c **** /**
 282:.//FWLIB/src/stm32f4xx_exti.c ****   * @brief  Clears the EXTI's line pending bits.
 283:.//FWLIB/src/stm32f4xx_exti.c ****   * @param  EXTI_Line: specifies the EXTI lines to clear.
 284:.//FWLIB/src/stm32f4xx_exti.c ****   *          This parameter can be any combination of EXTI_Linex where x can be (0..22)
 285:.//FWLIB/src/stm32f4xx_exti.c ****   * @retval None
 286:.//FWLIB/src/stm32f4xx_exti.c ****   */
 287:.//FWLIB/src/stm32f4xx_exti.c **** void EXTI_ClearITPendingBit(uint32_t EXTI_Line)
 288:.//FWLIB/src/stm32f4xx_exti.c **** {
 337              		.loc 1 288 0
 338              		.cfi_startproc
 339              		@ args = 0, pretend = 0, frame = 0
 340              		@ frame_needed = 0, uses_anonymous_args = 0
 341              		@ link register save eliminated.
 342              	.LVL20:
 289:.//FWLIB/src/stm32f4xx_exti.c ****   /* Check the parameters */
 290:.//FWLIB/src/stm32f4xx_exti.c ****   assert_param(IS_EXTI_LINE(EXTI_Line));
 291:.//FWLIB/src/stm32f4xx_exti.c ****   
 292:.//FWLIB/src/stm32f4xx_exti.c ****   EXTI->PR = EXTI_Line;
 343              		.loc 1 292 0
 344 0000 014B     		ldr	r3, .L30
 345 0002 5861     		str	r0, [r3, #20]
 346 0004 7047     		bx	lr
 347              	.L31:
 348 0006 00BF     		.align	2
 349              	.L30:
ARM GAS  /var/folders/v3/pl5z0pl12fx5br3g9j_y4ffr0000gn/T//ccpXcAme.s 			page 12


 350 0008 003C0140 		.word	1073822720
 351              		.cfi_endproc
 352              	.LFE119:
 354              		.text
 355              	.Letext0:
 356              		.file 2 "/Users/ertuil/gcc-arm-none-eabi/arm-none-eabi/include/machine/_default_types.h"
 357              		.file 3 "/Users/ertuil/gcc-arm-none-eabi/arm-none-eabi/include/sys/_stdint.h"
 358              		.file 4 "USER/stm32f4xx.h"
 359              		.file 5 "FWLIB/inc/stm32f4xx_exti.h"
 360              		.file 6 "CORE/core_cm4.h"
ARM GAS  /var/folders/v3/pl5z0pl12fx5br3g9j_y4ffr0000gn/T//ccpXcAme.s 			page 13

