ARM GAS  /var/folders/v3/pl5z0pl12fx5br3g9j_y4ffr0000gn/T//ccOA6yfn.s 			page 1


   1              		.syntax unified
   2              		.cpu cortex-m4
   3              		.eabi_attribute 27, 1
   4              		.eabi_attribute 28, 1
   5              		.fpu fpv4-sp-d16
   6              		.eabi_attribute 20, 1
   7              		.eabi_attribute 21, 1
   8              		.eabi_attribute 23, 3
   9              		.eabi_attribute 24, 1
  10              		.eabi_attribute 25, 1
  11              		.eabi_attribute 26, 1
  12              		.eabi_attribute 30, 1
  13              		.eabi_attribute 34, 1
  14              		.eabi_attribute 18, 4
  15              		.thumb
  16              		.syntax unified
  17              		.file	"stm32f4xx_it.c"
  18              		.text
  19              	.Ltext0:
  20              		.cfi_sections	.debug_frame
  21              		.section	.text.NMI_Handler,"ax",%progbits
  22              		.align	2
  23              		.global	NMI_Handler
  24              		.thumb
  25              		.thumb_func
  27              	NMI_Handler:
  28              	.LFB112:
  29              		.file 1 ".//USER/stm32f4xx_it.c"
   1:.//USER/stm32f4xx_it.c **** /**
   2:.//USER/stm32f4xx_it.c ****   ******************************************************************************
   3:.//USER/stm32f4xx_it.c ****   * @file    Project/STM32F4xx_StdPeriph_Templates/stm32f4xx_it.c 
   4:.//USER/stm32f4xx_it.c ****   * @author  MCD Application Team
   5:.//USER/stm32f4xx_it.c ****   * @version V1.4.0
   6:.//USER/stm32f4xx_it.c ****   * @date    04-August-2014
   7:.//USER/stm32f4xx_it.c ****   * @brief   Main Interrupt Service Routines.
   8:.//USER/stm32f4xx_it.c ****   *          This file provides template for all exceptions handler and 
   9:.//USER/stm32f4xx_it.c ****   *          peripherals interrupt service routine.
  10:.//USER/stm32f4xx_it.c ****   ******************************************************************************
  11:.//USER/stm32f4xx_it.c ****   * @attention
  12:.//USER/stm32f4xx_it.c ****   *
  13:.//USER/stm32f4xx_it.c ****   * <h2><center>&copy; COPYRIGHT 2014 STMicroelectronics</center></h2>
  14:.//USER/stm32f4xx_it.c ****   *
  15:.//USER/stm32f4xx_it.c ****   * Licensed under MCD-ST Liberty SW License Agreement V2, (the "License");
  16:.//USER/stm32f4xx_it.c ****   * You may not use this file except in compliance with the License.
  17:.//USER/stm32f4xx_it.c ****   * You may obtain a copy of the License at:
  18:.//USER/stm32f4xx_it.c ****   *
  19:.//USER/stm32f4xx_it.c ****   *        http://www.st.com/software_license_agreement_liberty_v2
  20:.//USER/stm32f4xx_it.c ****   *
  21:.//USER/stm32f4xx_it.c ****   * Unless required by applicable law or agreed to in writing, software 
  22:.//USER/stm32f4xx_it.c ****   * distributed under the License is distributed on an "AS IS" BASIS, 
  23:.//USER/stm32f4xx_it.c ****   * WITHOUT WARRANTIES OR CONDITIONS OF ANY KIND, either express or implied.
  24:.//USER/stm32f4xx_it.c ****   * See the License for the specific language governing permissions and
  25:.//USER/stm32f4xx_it.c ****   * limitations under the License.
  26:.//USER/stm32f4xx_it.c ****   *
  27:.//USER/stm32f4xx_it.c ****   ******************************************************************************
  28:.//USER/stm32f4xx_it.c ****   */
  29:.//USER/stm32f4xx_it.c **** 
ARM GAS  /var/folders/v3/pl5z0pl12fx5br3g9j_y4ffr0000gn/T//ccOA6yfn.s 			page 2


  30:.//USER/stm32f4xx_it.c **** /* Includes ------------------------------------------------------------------*/
  31:.//USER/stm32f4xx_it.c **** #include "stm32f4xx_it.h"
  32:.//USER/stm32f4xx_it.c ****  
  33:.//USER/stm32f4xx_it.c **** 
  34:.//USER/stm32f4xx_it.c **** /** @addtogroup Template_Project
  35:.//USER/stm32f4xx_it.c ****   * @{
  36:.//USER/stm32f4xx_it.c ****   */
  37:.//USER/stm32f4xx_it.c **** 
  38:.//USER/stm32f4xx_it.c **** /* Private typedef -----------------------------------------------------------*/
  39:.//USER/stm32f4xx_it.c **** /* Private define ------------------------------------------------------------*/
  40:.//USER/stm32f4xx_it.c **** /* Private macro -------------------------------------------------------------*/
  41:.//USER/stm32f4xx_it.c **** /* Private variables ---------------------------------------------------------*/
  42:.//USER/stm32f4xx_it.c **** /* Private function prototypes -----------------------------------------------*/
  43:.//USER/stm32f4xx_it.c **** /* Private functions ---------------------------------------------------------*/
  44:.//USER/stm32f4xx_it.c **** 
  45:.//USER/stm32f4xx_it.c **** /******************************************************************************/
  46:.//USER/stm32f4xx_it.c **** /*            Cortex-M4 Processor Exceptions Handlers                         */
  47:.//USER/stm32f4xx_it.c **** /******************************************************************************/
  48:.//USER/stm32f4xx_it.c **** 
  49:.//USER/stm32f4xx_it.c **** /**
  50:.//USER/stm32f4xx_it.c ****   * @brief  This function handles NMI exception.
  51:.//USER/stm32f4xx_it.c ****   * @param  None
  52:.//USER/stm32f4xx_it.c ****   * @retval None
  53:.//USER/stm32f4xx_it.c ****   */
  54:.//USER/stm32f4xx_it.c **** void NMI_Handler(void)
  55:.//USER/stm32f4xx_it.c **** {
  30              		.loc 1 55 0
  31              		.cfi_startproc
  32              		@ args = 0, pretend = 0, frame = 0
  33              		@ frame_needed = 0, uses_anonymous_args = 0
  34              		@ link register save eliminated.
  35 0000 7047     		bx	lr
  36              		.cfi_endproc
  37              	.LFE112:
  39 0002 00BF     		.section	.text.HardFault_Handler,"ax",%progbits
  40              		.align	2
  41              		.global	HardFault_Handler
  42              		.thumb
  43              		.thumb_func
  45              	HardFault_Handler:
  46              	.LFB113:
  56:.//USER/stm32f4xx_it.c **** }
  57:.//USER/stm32f4xx_it.c **** 
  58:.//USER/stm32f4xx_it.c **** /**
  59:.//USER/stm32f4xx_it.c ****   * @brief  This function handles Hard Fault exception.
  60:.//USER/stm32f4xx_it.c ****   * @param  None
  61:.//USER/stm32f4xx_it.c ****   * @retval None
  62:.//USER/stm32f4xx_it.c ****   */
  63:.//USER/stm32f4xx_it.c **** void HardFault_Handler(void)
  64:.//USER/stm32f4xx_it.c **** {
  47              		.loc 1 64 0
  48              		.cfi_startproc
  49              		@ Volatile: function does not return.
  50              		@ args = 0, pretend = 0, frame = 0
  51              		@ frame_needed = 0, uses_anonymous_args = 0
  52              		@ link register save eliminated.
  53              	.L3:
ARM GAS  /var/folders/v3/pl5z0pl12fx5br3g9j_y4ffr0000gn/T//ccOA6yfn.s 			page 3


  54 0000 FEE7     		b	.L3
  55              		.cfi_endproc
  56              	.LFE113:
  58 0002 00BF     		.section	.text.MemManage_Handler,"ax",%progbits
  59              		.align	2
  60              		.global	MemManage_Handler
  61              		.thumb
  62              		.thumb_func
  64              	MemManage_Handler:
  65              	.LFB114:
  65:.//USER/stm32f4xx_it.c ****   /* Go to infinite loop when Hard Fault exception occurs */
  66:.//USER/stm32f4xx_it.c ****   while (1)
  67:.//USER/stm32f4xx_it.c ****   {
  68:.//USER/stm32f4xx_it.c ****   }
  69:.//USER/stm32f4xx_it.c **** }
  70:.//USER/stm32f4xx_it.c **** 
  71:.//USER/stm32f4xx_it.c **** /**
  72:.//USER/stm32f4xx_it.c ****   * @brief  This function handles Memory Manage exception.
  73:.//USER/stm32f4xx_it.c ****   * @param  None
  74:.//USER/stm32f4xx_it.c ****   * @retval None
  75:.//USER/stm32f4xx_it.c ****   */
  76:.//USER/stm32f4xx_it.c **** void MemManage_Handler(void)
  77:.//USER/stm32f4xx_it.c **** {
  66              		.loc 1 77 0
  67              		.cfi_startproc
  68              		@ Volatile: function does not return.
  69              		@ args = 0, pretend = 0, frame = 0
  70              		@ frame_needed = 0, uses_anonymous_args = 0
  71              		@ link register save eliminated.
  72              	.L5:
  73 0000 FEE7     		b	.L5
  74              		.cfi_endproc
  75              	.LFE114:
  77 0002 00BF     		.section	.text.BusFault_Handler,"ax",%progbits
  78              		.align	2
  79              		.global	BusFault_Handler
  80              		.thumb
  81              		.thumb_func
  83              	BusFault_Handler:
  84              	.LFB115:
  78:.//USER/stm32f4xx_it.c ****   /* Go to infinite loop when Memory Manage exception occurs */
  79:.//USER/stm32f4xx_it.c ****   while (1)
  80:.//USER/stm32f4xx_it.c ****   {
  81:.//USER/stm32f4xx_it.c ****   }
  82:.//USER/stm32f4xx_it.c **** }
  83:.//USER/stm32f4xx_it.c **** 
  84:.//USER/stm32f4xx_it.c **** /**
  85:.//USER/stm32f4xx_it.c ****   * @brief  This function handles Bus Fault exception.
  86:.//USER/stm32f4xx_it.c ****   * @param  None
  87:.//USER/stm32f4xx_it.c ****   * @retval None
  88:.//USER/stm32f4xx_it.c ****   */
  89:.//USER/stm32f4xx_it.c **** void BusFault_Handler(void)
  90:.//USER/stm32f4xx_it.c **** {
  85              		.loc 1 90 0
  86              		.cfi_startproc
  87              		@ Volatile: function does not return.
  88              		@ args = 0, pretend = 0, frame = 0
ARM GAS  /var/folders/v3/pl5z0pl12fx5br3g9j_y4ffr0000gn/T//ccOA6yfn.s 			page 4


  89              		@ frame_needed = 0, uses_anonymous_args = 0
  90              		@ link register save eliminated.
  91              	.L7:
  92 0000 FEE7     		b	.L7
  93              		.cfi_endproc
  94              	.LFE115:
  96 0002 00BF     		.section	.text.UsageFault_Handler,"ax",%progbits
  97              		.align	2
  98              		.global	UsageFault_Handler
  99              		.thumb
 100              		.thumb_func
 102              	UsageFault_Handler:
 103              	.LFB116:
  91:.//USER/stm32f4xx_it.c ****   /* Go to infinite loop when Bus Fault exception occurs */
  92:.//USER/stm32f4xx_it.c ****   while (1)
  93:.//USER/stm32f4xx_it.c ****   {
  94:.//USER/stm32f4xx_it.c ****   }
  95:.//USER/stm32f4xx_it.c **** }
  96:.//USER/stm32f4xx_it.c **** 
  97:.//USER/stm32f4xx_it.c **** /**
  98:.//USER/stm32f4xx_it.c ****   * @brief  This function handles Usage Fault exception.
  99:.//USER/stm32f4xx_it.c ****   * @param  None
 100:.//USER/stm32f4xx_it.c ****   * @retval None
 101:.//USER/stm32f4xx_it.c ****   */
 102:.//USER/stm32f4xx_it.c **** void UsageFault_Handler(void)
 103:.//USER/stm32f4xx_it.c **** {
 104              		.loc 1 103 0
 105              		.cfi_startproc
 106              		@ Volatile: function does not return.
 107              		@ args = 0, pretend = 0, frame = 0
 108              		@ frame_needed = 0, uses_anonymous_args = 0
 109              		@ link register save eliminated.
 110              	.L9:
 111 0000 FEE7     		b	.L9
 112              		.cfi_endproc
 113              	.LFE116:
 115 0002 00BF     		.section	.text.SVC_Handler,"ax",%progbits
 116              		.align	2
 117              		.global	SVC_Handler
 118              		.thumb
 119              		.thumb_func
 121              	SVC_Handler:
 122              	.LFB117:
 104:.//USER/stm32f4xx_it.c ****   /* Go to infinite loop when Usage Fault exception occurs */
 105:.//USER/stm32f4xx_it.c ****   while (1)
 106:.//USER/stm32f4xx_it.c ****   {
 107:.//USER/stm32f4xx_it.c ****   }
 108:.//USER/stm32f4xx_it.c **** }
 109:.//USER/stm32f4xx_it.c **** 
 110:.//USER/stm32f4xx_it.c **** /**
 111:.//USER/stm32f4xx_it.c ****   * @brief  This function handles SVCall exception.
 112:.//USER/stm32f4xx_it.c ****   * @param  None
 113:.//USER/stm32f4xx_it.c ****   * @retval None
 114:.//USER/stm32f4xx_it.c ****   */
 115:.//USER/stm32f4xx_it.c **** void SVC_Handler(void)
 116:.//USER/stm32f4xx_it.c **** {
 123              		.loc 1 116 0
ARM GAS  /var/folders/v3/pl5z0pl12fx5br3g9j_y4ffr0000gn/T//ccOA6yfn.s 			page 5


 124              		.cfi_startproc
 125              		@ args = 0, pretend = 0, frame = 0
 126              		@ frame_needed = 0, uses_anonymous_args = 0
 127              		@ link register save eliminated.
 128 0000 7047     		bx	lr
 129              		.cfi_endproc
 130              	.LFE117:
 132 0002 00BF     		.section	.text.DebugMon_Handler,"ax",%progbits
 133              		.align	2
 134              		.global	DebugMon_Handler
 135              		.thumb
 136              		.thumb_func
 138              	DebugMon_Handler:
 139              	.LFB118:
 117:.//USER/stm32f4xx_it.c **** }
 118:.//USER/stm32f4xx_it.c **** 
 119:.//USER/stm32f4xx_it.c **** /**
 120:.//USER/stm32f4xx_it.c ****   * @brief  This function handles Debug Monitor exception.
 121:.//USER/stm32f4xx_it.c ****   * @param  None
 122:.//USER/stm32f4xx_it.c ****   * @retval None
 123:.//USER/stm32f4xx_it.c ****   */
 124:.//USER/stm32f4xx_it.c **** void DebugMon_Handler(void)
 125:.//USER/stm32f4xx_it.c **** {
 140              		.loc 1 125 0
 141              		.cfi_startproc
 142              		@ args = 0, pretend = 0, frame = 0
 143              		@ frame_needed = 0, uses_anonymous_args = 0
 144              		@ link register save eliminated.
 145 0000 7047     		bx	lr
 146              		.cfi_endproc
 147              	.LFE118:
 149 0002 00BF     		.section	.text.PendSV_Handler,"ax",%progbits
 150              		.align	2
 151              		.global	PendSV_Handler
 152              		.thumb
 153              		.thumb_func
 155              	PendSV_Handler:
 156              	.LFB119:
 126:.//USER/stm32f4xx_it.c **** }
 127:.//USER/stm32f4xx_it.c **** 
 128:.//USER/stm32f4xx_it.c **** /**
 129:.//USER/stm32f4xx_it.c ****   * @brief  This function handles PendSVC exception.
 130:.//USER/stm32f4xx_it.c ****   * @param  None
 131:.//USER/stm32f4xx_it.c ****   * @retval None
 132:.//USER/stm32f4xx_it.c ****   */
 133:.//USER/stm32f4xx_it.c **** void PendSV_Handler(void)
 134:.//USER/stm32f4xx_it.c **** {
 157              		.loc 1 134 0
 158              		.cfi_startproc
 159              		@ args = 0, pretend = 0, frame = 0
 160              		@ frame_needed = 0, uses_anonymous_args = 0
 161              		@ link register save eliminated.
 162 0000 7047     		bx	lr
 163              		.cfi_endproc
 164              	.LFE119:
 166 0002 00BF     		.section	.text.SysTick_Handler,"ax",%progbits
 167              		.align	2
ARM GAS  /var/folders/v3/pl5z0pl12fx5br3g9j_y4ffr0000gn/T//ccOA6yfn.s 			page 6


 168              		.global	SysTick_Handler
 169              		.thumb
 170              		.thumb_func
 172              	SysTick_Handler:
 173              	.LFB120:
 135:.//USER/stm32f4xx_it.c **** }
 136:.//USER/stm32f4xx_it.c **** 
 137:.//USER/stm32f4xx_it.c **** /**
 138:.//USER/stm32f4xx_it.c ****   * @brief  This function handles SysTick Handler.
 139:.//USER/stm32f4xx_it.c ****   * @param  None
 140:.//USER/stm32f4xx_it.c ****   * @retval None
 141:.//USER/stm32f4xx_it.c ****   */
 142:.//USER/stm32f4xx_it.c **** void SysTick_Handler(void)
 143:.//USER/stm32f4xx_it.c **** {
 174              		.loc 1 143 0
 175              		.cfi_startproc
 176              		@ args = 0, pretend = 0, frame = 0
 177              		@ frame_needed = 0, uses_anonymous_args = 0
 178              		@ link register save eliminated.
 179 0000 7047     		bx	lr
 180              		.cfi_endproc
 181              	.LFE120:
 183 0002 00BF     		.text
 184              	.Letext0:
 185              		.file 2 "/Users/ertuil/gcc-arm-none-eabi/arm-none-eabi/include/machine/_default_types.h"
 186              		.file 3 "/Users/ertuil/gcc-arm-none-eabi/arm-none-eabi/include/sys/_stdint.h"
 187              		.file 4 "CORE/core_cm4.h"
ARM GAS  /var/folders/v3/pl5z0pl12fx5br3g9j_y4ffr0000gn/T//ccOA6yfn.s 			page 7

