ARM GAS  /var/folders/v3/pl5z0pl12fx5br3g9j_y4ffr0000gn/T//ccGmim1w.s 			page 1


   1              		.syntax unified
   2              		.cpu cortex-m3
   3              		.fpu softvfp
   4              		.eabi_attribute 20, 1
   5              		.eabi_attribute 21, 1
   6              		.eabi_attribute 23, 3
   7              		.eabi_attribute 24, 1
   8              		.eabi_attribute 25, 1
   9              		.eabi_attribute 26, 1
  10              		.eabi_attribute 30, 1
  11              		.eabi_attribute 34, 1
  12              		.eabi_attribute 18, 4
  13              		.thumb
  14              		.syntax unified
  15              		.file	"stm32f10x_it.c"
  16              		.text
  17              	.Ltext0:
  18              		.cfi_sections	.debug_frame
  19              		.section	.text.NMI_Handler,"ax",%progbits
  20              		.align	2
  21              		.global	NMI_Handler
  22              		.thumb
  23              		.thumb_func
  25              	NMI_Handler:
  26              	.LFB29:
  27              		.file 1 ".//USER/stm32f10x_it.c"
   1:.//USER/stm32f10x_it.c **** /**
   2:.//USER/stm32f10x_it.c ****   ******************************************************************************
   3:.//USER/stm32f10x_it.c ****   * @file    GPIO/IOToggle/stm32f10x_it.c 
   4:.//USER/stm32f10x_it.c ****   * @author  MCD Application Team
   5:.//USER/stm32f10x_it.c ****   * @version V3.5.0
   6:.//USER/stm32f10x_it.c ****   * @date    08-April-2011
   7:.//USER/stm32f10x_it.c ****   * @brief   Main Interrupt Service Routines.
   8:.//USER/stm32f10x_it.c ****   *          This file provides template for all exceptions handler and peripherals
   9:.//USER/stm32f10x_it.c ****   *          interrupt service routine.
  10:.//USER/stm32f10x_it.c ****   ******************************************************************************
  11:.//USER/stm32f10x_it.c ****   * @attention
  12:.//USER/stm32f10x_it.c ****   *
  13:.//USER/stm32f10x_it.c ****   * THE PRESENT FIRMWARE WHICH IS FOR GUIDANCE ONLY AIMS AT PROVIDING CUSTOMERS
  14:.//USER/stm32f10x_it.c ****   * WITH CODING INFORMATION REGARDING THEIR PRODUCTS IN ORDER FOR THEM TO SAVE
  15:.//USER/stm32f10x_it.c ****   * TIME. AS A RESULT, STMICROELECTRONICS SHALL NOT BE HELD LIABLE FOR ANY
  16:.//USER/stm32f10x_it.c ****   * DIRECT, INDIRECT OR CONSEQUENTIAL DAMAGES WITH RESPECT TO ANY CLAIMS ARISING
  17:.//USER/stm32f10x_it.c ****   * FROM THE CONTENT OF SUCH FIRMWARE AND/OR THE USE MADE BY CUSTOMERS OF THE
  18:.//USER/stm32f10x_it.c ****   * CODING INFORMATION CONTAINED HEREIN IN CONNECTION WITH THEIR PRODUCTS.
  19:.//USER/stm32f10x_it.c ****   *
  20:.//USER/stm32f10x_it.c ****   * <h2><center>&copy; COPYRIGHT 2011 STMicroelectronics</center></h2>
  21:.//USER/stm32f10x_it.c ****   ******************************************************************************
  22:.//USER/stm32f10x_it.c ****   */
  23:.//USER/stm32f10x_it.c **** 
  24:.//USER/stm32f10x_it.c **** /* Includes ------------------------------------------------------------------*/
  25:.//USER/stm32f10x_it.c **** #include "stm32f10x_it.h" 
  26:.//USER/stm32f10x_it.c **** 
  27:.//USER/stm32f10x_it.c **** 
  28:.//USER/stm32f10x_it.c ****  
  29:.//USER/stm32f10x_it.c **** void NMI_Handler(void)
  30:.//USER/stm32f10x_it.c **** {
  28              		.loc 1 30 0
ARM GAS  /var/folders/v3/pl5z0pl12fx5br3g9j_y4ffr0000gn/T//ccGmim1w.s 			page 2


  29              		.cfi_startproc
  30              		@ args = 0, pretend = 0, frame = 0
  31              		@ frame_needed = 0, uses_anonymous_args = 0
  32              		@ link register save eliminated.
  33 0000 7047     		bx	lr
  34              		.cfi_endproc
  35              	.LFE29:
  37 0002 00BF     		.section	.text.HardFault_Handler,"ax",%progbits
  38              		.align	2
  39              		.global	HardFault_Handler
  40              		.thumb
  41              		.thumb_func
  43              	HardFault_Handler:
  44              	.LFB30:
  31:.//USER/stm32f10x_it.c **** }
  32:.//USER/stm32f10x_it.c ****  
  33:.//USER/stm32f10x_it.c **** void HardFault_Handler(void)
  34:.//USER/stm32f10x_it.c **** {
  45              		.loc 1 34 0
  46              		.cfi_startproc
  47              		@ Volatile: function does not return.
  48              		@ args = 0, pretend = 0, frame = 0
  49              		@ frame_needed = 0, uses_anonymous_args = 0
  50              		@ link register save eliminated.
  51              	.L3:
  52 0000 FEE7     		b	.L3
  53              		.cfi_endproc
  54              	.LFE30:
  56 0002 00BF     		.section	.text.MemManage_Handler,"ax",%progbits
  57              		.align	2
  58              		.global	MemManage_Handler
  59              		.thumb
  60              		.thumb_func
  62              	MemManage_Handler:
  63              	.LFB31:
  35:.//USER/stm32f10x_it.c ****   /* Go to infinite loop when Hard Fault exception occurs */
  36:.//USER/stm32f10x_it.c ****   while (1)
  37:.//USER/stm32f10x_it.c ****   {
  38:.//USER/stm32f10x_it.c ****   }
  39:.//USER/stm32f10x_it.c **** }
  40:.//USER/stm32f10x_it.c ****  
  41:.//USER/stm32f10x_it.c **** void MemManage_Handler(void)
  42:.//USER/stm32f10x_it.c **** {
  64              		.loc 1 42 0
  65              		.cfi_startproc
  66              		@ Volatile: function does not return.
  67              		@ args = 0, pretend = 0, frame = 0
  68              		@ frame_needed = 0, uses_anonymous_args = 0
  69              		@ link register save eliminated.
  70              	.L5:
  71 0000 FEE7     		b	.L5
  72              		.cfi_endproc
  73              	.LFE31:
  75 0002 00BF     		.section	.text.BusFault_Handler,"ax",%progbits
  76              		.align	2
  77              		.global	BusFault_Handler
  78              		.thumb
ARM GAS  /var/folders/v3/pl5z0pl12fx5br3g9j_y4ffr0000gn/T//ccGmim1w.s 			page 3


  79              		.thumb_func
  81              	BusFault_Handler:
  82              	.LFB32:
  43:.//USER/stm32f10x_it.c ****   /* Go to infinite loop when Memory Manage exception occurs */
  44:.//USER/stm32f10x_it.c ****   while (1)
  45:.//USER/stm32f10x_it.c ****   {
  46:.//USER/stm32f10x_it.c ****   }
  47:.//USER/stm32f10x_it.c **** }
  48:.//USER/stm32f10x_it.c **** 
  49:.//USER/stm32f10x_it.c ****  
  50:.//USER/stm32f10x_it.c **** void BusFault_Handler(void)
  51:.//USER/stm32f10x_it.c **** {
  83              		.loc 1 51 0
  84              		.cfi_startproc
  85              		@ Volatile: function does not return.
  86              		@ args = 0, pretend = 0, frame = 0
  87              		@ frame_needed = 0, uses_anonymous_args = 0
  88              		@ link register save eliminated.
  89              	.L7:
  90 0000 FEE7     		b	.L7
  91              		.cfi_endproc
  92              	.LFE32:
  94 0002 00BF     		.section	.text.UsageFault_Handler,"ax",%progbits
  95              		.align	2
  96              		.global	UsageFault_Handler
  97              		.thumb
  98              		.thumb_func
 100              	UsageFault_Handler:
 101              	.LFB33:
  52:.//USER/stm32f10x_it.c ****   /* Go to infinite loop when Bus Fault exception occurs */
  53:.//USER/stm32f10x_it.c ****   while (1)
  54:.//USER/stm32f10x_it.c ****   {
  55:.//USER/stm32f10x_it.c ****   }
  56:.//USER/stm32f10x_it.c **** }
  57:.//USER/stm32f10x_it.c ****  
  58:.//USER/stm32f10x_it.c **** void UsageFault_Handler(void)
  59:.//USER/stm32f10x_it.c **** {
 102              		.loc 1 59 0
 103              		.cfi_startproc
 104              		@ Volatile: function does not return.
 105              		@ args = 0, pretend = 0, frame = 0
 106              		@ frame_needed = 0, uses_anonymous_args = 0
 107              		@ link register save eliminated.
 108              	.L9:
 109 0000 FEE7     		b	.L9
 110              		.cfi_endproc
 111              	.LFE33:
 113 0002 00BF     		.section	.text.SVC_Handler,"ax",%progbits
 114              		.align	2
 115              		.global	SVC_Handler
 116              		.thumb
 117              		.thumb_func
 119              	SVC_Handler:
 120              	.LFB34:
  60:.//USER/stm32f10x_it.c ****   /* Go to infinite loop when Usage Fault exception occurs */
  61:.//USER/stm32f10x_it.c ****   while (1)
  62:.//USER/stm32f10x_it.c ****   {
ARM GAS  /var/folders/v3/pl5z0pl12fx5br3g9j_y4ffr0000gn/T//ccGmim1w.s 			page 4


  63:.//USER/stm32f10x_it.c ****   }
  64:.//USER/stm32f10x_it.c **** }
  65:.//USER/stm32f10x_it.c ****  
  66:.//USER/stm32f10x_it.c **** void SVC_Handler(void)
  67:.//USER/stm32f10x_it.c **** {
 121              		.loc 1 67 0
 122              		.cfi_startproc
 123              		@ args = 0, pretend = 0, frame = 0
 124              		@ frame_needed = 0, uses_anonymous_args = 0
 125              		@ link register save eliminated.
 126 0000 7047     		bx	lr
 127              		.cfi_endproc
 128              	.LFE34:
 130 0002 00BF     		.section	.text.DebugMon_Handler,"ax",%progbits
 131              		.align	2
 132              		.global	DebugMon_Handler
 133              		.thumb
 134              		.thumb_func
 136              	DebugMon_Handler:
 137              	.LFB35:
  68:.//USER/stm32f10x_it.c **** }
  69:.//USER/stm32f10x_it.c ****  
  70:.//USER/stm32f10x_it.c **** void DebugMon_Handler(void)
  71:.//USER/stm32f10x_it.c **** {
 138              		.loc 1 71 0
 139              		.cfi_startproc
 140              		@ args = 0, pretend = 0, frame = 0
 141              		@ frame_needed = 0, uses_anonymous_args = 0
 142              		@ link register save eliminated.
 143 0000 7047     		bx	lr
 144              		.cfi_endproc
 145              	.LFE35:
 147 0002 00BF     		.section	.text.PendSV_Handler,"ax",%progbits
 148              		.align	2
 149              		.global	PendSV_Handler
 150              		.thumb
 151              		.thumb_func
 153              	PendSV_Handler:
 154              	.LFB36:
  72:.//USER/stm32f10x_it.c **** }
  73:.//USER/stm32f10x_it.c ****  
  74:.//USER/stm32f10x_it.c **** void PendSV_Handler(void)
  75:.//USER/stm32f10x_it.c **** {
 155              		.loc 1 75 0
 156              		.cfi_startproc
 157              		@ args = 0, pretend = 0, frame = 0
 158              		@ frame_needed = 0, uses_anonymous_args = 0
 159              		@ link register save eliminated.
 160 0000 7047     		bx	lr
 161              		.cfi_endproc
 162              	.LFE36:
 164 0002 00BF     		.section	.text.SysTick_Handler,"ax",%progbits
 165              		.align	2
 166              		.global	SysTick_Handler
 167              		.thumb
 168              		.thumb_func
 170              	SysTick_Handler:
ARM GAS  /var/folders/v3/pl5z0pl12fx5br3g9j_y4ffr0000gn/T//ccGmim1w.s 			page 5


 171              	.LFB37:
  76:.//USER/stm32f10x_it.c **** }
  77:.//USER/stm32f10x_it.c ****  
  78:.//USER/stm32f10x_it.c **** void SysTick_Handler(void)
  79:.//USER/stm32f10x_it.c **** {
 172              		.loc 1 79 0
 173              		.cfi_startproc
 174              		@ args = 0, pretend = 0, frame = 0
 175              		@ frame_needed = 0, uses_anonymous_args = 0
 176              		@ link register save eliminated.
 177 0000 7047     		bx	lr
 178              		.cfi_endproc
 179              	.LFE37:
 181 0002 00BF     		.text
 182              	.Letext0:
 183              		.file 2 "CORE/core_cm3.h"
ARM GAS  /var/folders/v3/pl5z0pl12fx5br3g9j_y4ffr0000gn/T//ccGmim1w.s 			page 6

