ARM GAS  /var/folders/v3/pl5z0pl12fx5br3g9j_y4ffr0000gn/T//cchvY1ju.s 			page 1


   1              		.syntax unified
   2              		.cpu cortex-m3
   3              		.fpu softvfp
   4              		.eabi_attribute 20, 1
   5              		.eabi_attribute 21, 1
   6              		.eabi_attribute 23, 3
   7              		.eabi_attribute 24, 1
   8              		.eabi_attribute 25, 1
   9              		.eabi_attribute 26, 1
  10              		.eabi_attribute 30, 1
  11              		.eabi_attribute 34, 1
  12              		.eabi_attribute 18, 4
  13              		.thumb
  14              		.syntax unified
  15              		.file	"stm32f10x_flash.c"
  16              		.text
  17              	.Ltext0:
  18              		.cfi_sections	.debug_frame
  19              		.section	.text.FLASH_SetLatency,"ax",%progbits
  20              		.align	2
  21              		.global	FLASH_SetLatency
  22              		.thumb
  23              		.thumb_func
  25              	FLASH_SetLatency:
  26              	.LFB29:
  27              		.file 1 ".//FWLIB/src/stm32f10x_flash.c"
   1:.//FWLIB/src/stm32f10x_flash.c **** /**
   2:.//FWLIB/src/stm32f10x_flash.c ****   ******************************************************************************
   3:.//FWLIB/src/stm32f10x_flash.c ****   * @file    stm32f10x_flash.c
   4:.//FWLIB/src/stm32f10x_flash.c ****   * @author  MCD Application Team
   5:.//FWLIB/src/stm32f10x_flash.c ****   * @version V3.5.0
   6:.//FWLIB/src/stm32f10x_flash.c ****   * @date    11-March-2011
   7:.//FWLIB/src/stm32f10x_flash.c ****   * @brief   This file provides all the FLASH firmware functions.
   8:.//FWLIB/src/stm32f10x_flash.c ****   ******************************************************************************
   9:.//FWLIB/src/stm32f10x_flash.c ****   * @attention
  10:.//FWLIB/src/stm32f10x_flash.c ****   *
  11:.//FWLIB/src/stm32f10x_flash.c ****   * THE PRESENT FIRMWARE WHICH IS FOR GUIDANCE ONLY AIMS AT PROVIDING CUSTOMERS
  12:.//FWLIB/src/stm32f10x_flash.c ****   * WITH CODING INFORMATION REGARDING THEIR PRODUCTS IN ORDER FOR THEM TO SAVE
  13:.//FWLIB/src/stm32f10x_flash.c ****   * TIME. AS A RESULT, STMICROELECTRONICS SHALL NOT BE HELD LIABLE FOR ANY
  14:.//FWLIB/src/stm32f10x_flash.c ****   * DIRECT, INDIRECT OR CONSEQUENTIAL DAMAGES WITH RESPECT TO ANY CLAIMS ARISING
  15:.//FWLIB/src/stm32f10x_flash.c ****   * FROM THE CONTENT OF SUCH FIRMWARE AND/OR THE USE MADE BY CUSTOMERS OF THE
  16:.//FWLIB/src/stm32f10x_flash.c ****   * CODING INFORMATION CONTAINED HEREIN IN CONNECTION WITH THEIR PRODUCTS.
  17:.//FWLIB/src/stm32f10x_flash.c ****   *
  18:.//FWLIB/src/stm32f10x_flash.c ****   * <h2><center>&copy; COPYRIGHT 2011 STMicroelectronics</center></h2>
  19:.//FWLIB/src/stm32f10x_flash.c ****   ******************************************************************************
  20:.//FWLIB/src/stm32f10x_flash.c ****   */
  21:.//FWLIB/src/stm32f10x_flash.c **** 
  22:.//FWLIB/src/stm32f10x_flash.c **** /* Includes ------------------------------------------------------------------*/
  23:.//FWLIB/src/stm32f10x_flash.c **** #include "stm32f10x_flash.h"
  24:.//FWLIB/src/stm32f10x_flash.c **** 
  25:.//FWLIB/src/stm32f10x_flash.c **** /** @addtogroup STM32F10x_StdPeriph_Driver
  26:.//FWLIB/src/stm32f10x_flash.c ****   * @{
  27:.//FWLIB/src/stm32f10x_flash.c ****   */
  28:.//FWLIB/src/stm32f10x_flash.c **** 
  29:.//FWLIB/src/stm32f10x_flash.c **** /** @defgroup FLASH 
  30:.//FWLIB/src/stm32f10x_flash.c ****   * @brief FLASH driver modules
  31:.//FWLIB/src/stm32f10x_flash.c ****   * @{
ARM GAS  /var/folders/v3/pl5z0pl12fx5br3g9j_y4ffr0000gn/T//cchvY1ju.s 			page 2


  32:.//FWLIB/src/stm32f10x_flash.c ****   */ 
  33:.//FWLIB/src/stm32f10x_flash.c **** 
  34:.//FWLIB/src/stm32f10x_flash.c **** /** @defgroup FLASH_Private_TypesDefinitions
  35:.//FWLIB/src/stm32f10x_flash.c ****   * @{
  36:.//FWLIB/src/stm32f10x_flash.c ****   */
  37:.//FWLIB/src/stm32f10x_flash.c **** 
  38:.//FWLIB/src/stm32f10x_flash.c **** /**
  39:.//FWLIB/src/stm32f10x_flash.c ****   * @}
  40:.//FWLIB/src/stm32f10x_flash.c ****   */ 
  41:.//FWLIB/src/stm32f10x_flash.c **** 
  42:.//FWLIB/src/stm32f10x_flash.c **** /** @defgroup FLASH_Private_Defines
  43:.//FWLIB/src/stm32f10x_flash.c ****   * @{
  44:.//FWLIB/src/stm32f10x_flash.c ****   */ 
  45:.//FWLIB/src/stm32f10x_flash.c **** 
  46:.//FWLIB/src/stm32f10x_flash.c **** /* Flash Access Control Register bits */
  47:.//FWLIB/src/stm32f10x_flash.c **** #define ACR_LATENCY_Mask         ((uint32_t)0x00000038)
  48:.//FWLIB/src/stm32f10x_flash.c **** #define ACR_HLFCYA_Mask          ((uint32_t)0xFFFFFFF7)
  49:.//FWLIB/src/stm32f10x_flash.c **** #define ACR_PRFTBE_Mask          ((uint32_t)0xFFFFFFEF)
  50:.//FWLIB/src/stm32f10x_flash.c **** 
  51:.//FWLIB/src/stm32f10x_flash.c **** /* Flash Access Control Register bits */
  52:.//FWLIB/src/stm32f10x_flash.c **** #define ACR_PRFTBS_Mask          ((uint32_t)0x00000020) 
  53:.//FWLIB/src/stm32f10x_flash.c **** 
  54:.//FWLIB/src/stm32f10x_flash.c **** /* Flash Control Register bits */
  55:.//FWLIB/src/stm32f10x_flash.c **** #define CR_PG_Set                ((uint32_t)0x00000001)
  56:.//FWLIB/src/stm32f10x_flash.c **** #define CR_PG_Reset              ((uint32_t)0x00001FFE) 
  57:.//FWLIB/src/stm32f10x_flash.c **** #define CR_PER_Set               ((uint32_t)0x00000002)
  58:.//FWLIB/src/stm32f10x_flash.c **** #define CR_PER_Reset             ((uint32_t)0x00001FFD)
  59:.//FWLIB/src/stm32f10x_flash.c **** #define CR_MER_Set               ((uint32_t)0x00000004)
  60:.//FWLIB/src/stm32f10x_flash.c **** #define CR_MER_Reset             ((uint32_t)0x00001FFB)
  61:.//FWLIB/src/stm32f10x_flash.c **** #define CR_OPTPG_Set             ((uint32_t)0x00000010)
  62:.//FWLIB/src/stm32f10x_flash.c **** #define CR_OPTPG_Reset           ((uint32_t)0x00001FEF)
  63:.//FWLIB/src/stm32f10x_flash.c **** #define CR_OPTER_Set             ((uint32_t)0x00000020)
  64:.//FWLIB/src/stm32f10x_flash.c **** #define CR_OPTER_Reset           ((uint32_t)0x00001FDF)
  65:.//FWLIB/src/stm32f10x_flash.c **** #define CR_STRT_Set              ((uint32_t)0x00000040)
  66:.//FWLIB/src/stm32f10x_flash.c **** #define CR_LOCK_Set              ((uint32_t)0x00000080)
  67:.//FWLIB/src/stm32f10x_flash.c **** 
  68:.//FWLIB/src/stm32f10x_flash.c **** /* FLASH Mask */
  69:.//FWLIB/src/stm32f10x_flash.c **** #define RDPRT_Mask               ((uint32_t)0x00000002)
  70:.//FWLIB/src/stm32f10x_flash.c **** #define WRP0_Mask                ((uint32_t)0x000000FF)
  71:.//FWLIB/src/stm32f10x_flash.c **** #define WRP1_Mask                ((uint32_t)0x0000FF00)
  72:.//FWLIB/src/stm32f10x_flash.c **** #define WRP2_Mask                ((uint32_t)0x00FF0000)
  73:.//FWLIB/src/stm32f10x_flash.c **** #define WRP3_Mask                ((uint32_t)0xFF000000)
  74:.//FWLIB/src/stm32f10x_flash.c **** #define OB_USER_BFB2             ((uint16_t)0x0008)
  75:.//FWLIB/src/stm32f10x_flash.c **** 
  76:.//FWLIB/src/stm32f10x_flash.c **** /* FLASH Keys */
  77:.//FWLIB/src/stm32f10x_flash.c **** #define RDP_Key                  ((uint16_t)0x00A5)
  78:.//FWLIB/src/stm32f10x_flash.c **** #define FLASH_KEY1               ((uint32_t)0x45670123)
  79:.//FWLIB/src/stm32f10x_flash.c **** #define FLASH_KEY2               ((uint32_t)0xCDEF89AB)
  80:.//FWLIB/src/stm32f10x_flash.c **** 
  81:.//FWLIB/src/stm32f10x_flash.c **** /* FLASH BANK address */
  82:.//FWLIB/src/stm32f10x_flash.c **** #define FLASH_BANK1_END_ADDRESS   ((uint32_t)0x807FFFF)
  83:.//FWLIB/src/stm32f10x_flash.c **** 
  84:.//FWLIB/src/stm32f10x_flash.c **** /* Delay definition */   
  85:.//FWLIB/src/stm32f10x_flash.c **** #define EraseTimeout          ((uint32_t)0x000B0000)
  86:.//FWLIB/src/stm32f10x_flash.c **** #define ProgramTimeout        ((uint32_t)0x00002000)
  87:.//FWLIB/src/stm32f10x_flash.c **** /**
  88:.//FWLIB/src/stm32f10x_flash.c ****   * @}
ARM GAS  /var/folders/v3/pl5z0pl12fx5br3g9j_y4ffr0000gn/T//cchvY1ju.s 			page 3


  89:.//FWLIB/src/stm32f10x_flash.c ****   */ 
  90:.//FWLIB/src/stm32f10x_flash.c **** 
  91:.//FWLIB/src/stm32f10x_flash.c **** /** @defgroup FLASH_Private_Macros
  92:.//FWLIB/src/stm32f10x_flash.c ****   * @{
  93:.//FWLIB/src/stm32f10x_flash.c ****   */
  94:.//FWLIB/src/stm32f10x_flash.c **** 
  95:.//FWLIB/src/stm32f10x_flash.c **** /**
  96:.//FWLIB/src/stm32f10x_flash.c ****   * @}
  97:.//FWLIB/src/stm32f10x_flash.c ****   */ 
  98:.//FWLIB/src/stm32f10x_flash.c **** 
  99:.//FWLIB/src/stm32f10x_flash.c **** /** @defgroup FLASH_Private_Variables
 100:.//FWLIB/src/stm32f10x_flash.c ****   * @{
 101:.//FWLIB/src/stm32f10x_flash.c ****   */
 102:.//FWLIB/src/stm32f10x_flash.c **** 
 103:.//FWLIB/src/stm32f10x_flash.c **** /**
 104:.//FWLIB/src/stm32f10x_flash.c ****   * @}
 105:.//FWLIB/src/stm32f10x_flash.c ****   */ 
 106:.//FWLIB/src/stm32f10x_flash.c **** 
 107:.//FWLIB/src/stm32f10x_flash.c **** /** @defgroup FLASH_Private_FunctionPrototypes
 108:.//FWLIB/src/stm32f10x_flash.c ****   * @{
 109:.//FWLIB/src/stm32f10x_flash.c ****   */
 110:.//FWLIB/src/stm32f10x_flash.c ****   
 111:.//FWLIB/src/stm32f10x_flash.c **** /**
 112:.//FWLIB/src/stm32f10x_flash.c ****   * @}
 113:.//FWLIB/src/stm32f10x_flash.c ****   */
 114:.//FWLIB/src/stm32f10x_flash.c **** 
 115:.//FWLIB/src/stm32f10x_flash.c **** /** @defgroup FLASH_Private_Functions
 116:.//FWLIB/src/stm32f10x_flash.c ****   * @{
 117:.//FWLIB/src/stm32f10x_flash.c ****   */
 118:.//FWLIB/src/stm32f10x_flash.c **** 
 119:.//FWLIB/src/stm32f10x_flash.c **** /**
 120:.//FWLIB/src/stm32f10x_flash.c **** @code  
 121:.//FWLIB/src/stm32f10x_flash.c ****  
 122:.//FWLIB/src/stm32f10x_flash.c ****  This driver provides functions to configure and program the Flash memory of all STM32F10x devices,
 123:.//FWLIB/src/stm32f10x_flash.c ****  including the latest STM32F10x_XL density devices. 
 124:.//FWLIB/src/stm32f10x_flash.c **** 
 125:.//FWLIB/src/stm32f10x_flash.c ****  STM32F10x_XL devices feature up to 1 Mbyte with dual bank architecture for read-while-write (RWW) 
 126:.//FWLIB/src/stm32f10x_flash.c ****     - bank1: fixed size of 512 Kbytes (256 pages of 2Kbytes each)
 127:.//FWLIB/src/stm32f10x_flash.c ****     - bank2: up to 512 Kbytes (up to 256 pages of 2Kbytes each)
 128:.//FWLIB/src/stm32f10x_flash.c ****  While other STM32F10x devices features only one bank with memory up to 512 Kbytes.
 129:.//FWLIB/src/stm32f10x_flash.c **** 
 130:.//FWLIB/src/stm32f10x_flash.c ****  In version V3.3.0, some functions were updated and new ones were added to support
 131:.//FWLIB/src/stm32f10x_flash.c ****  STM32F10x_XL devices. Thus some functions manages all devices, while other are 
 132:.//FWLIB/src/stm32f10x_flash.c ****  dedicated for XL devices only.
 133:.//FWLIB/src/stm32f10x_flash.c ****  
 134:.//FWLIB/src/stm32f10x_flash.c ****  The table below presents the list of available functions depending on the used STM32F10x devices. 
 135:.//FWLIB/src/stm32f10x_flash.c ****       
 136:.//FWLIB/src/stm32f10x_flash.c ****    ***************************************************
 137:.//FWLIB/src/stm32f10x_flash.c ****    * Legacy functions used for all STM32F10x devices *
 138:.//FWLIB/src/stm32f10x_flash.c ****    ***************************************************
 139:.//FWLIB/src/stm32f10x_flash.c ****    +-----------------------------------------------------------------------------------------------
 140:.//FWLIB/src/stm32f10x_flash.c ****    |       Functions prototypes         |STM32F10x_XL|Other STM32F10x|    Comments                 
 141:.//FWLIB/src/stm32f10x_flash.c ****    |                                    |   devices  |  devices      |                             
 142:.//FWLIB/src/stm32f10x_flash.c ****    |-----------------------------------------------------------------------------------------------
 143:.//FWLIB/src/stm32f10x_flash.c ****    |FLASH_SetLatency                    |    Yes     |      Yes      | No change                   
 144:.//FWLIB/src/stm32f10x_flash.c ****    |-----------------------------------------------------------------------------------------------
 145:.//FWLIB/src/stm32f10x_flash.c ****    |FLASH_HalfCycleAccessCmd            |    Yes     |      Yes      | No change                   
ARM GAS  /var/folders/v3/pl5z0pl12fx5br3g9j_y4ffr0000gn/T//cchvY1ju.s 			page 4


 146:.//FWLIB/src/stm32f10x_flash.c ****    |-----------------------------------------------------------------------------------------------
 147:.//FWLIB/src/stm32f10x_flash.c ****    |FLASH_PrefetchBufferCmd             |    Yes     |      Yes      | No change                   
 148:.//FWLIB/src/stm32f10x_flash.c ****    |-----------------------------------------------------------------------------------------------
 149:.//FWLIB/src/stm32f10x_flash.c ****    |FLASH_Unlock                        |    Yes     |      Yes      | - For STM32F10X_XL devices: 
 150:.//FWLIB/src/stm32f10x_flash.c ****    |                                    |            |               | - For other devices: unlock 
 151:.//FWLIB/src/stm32f10x_flash.c ****    |                                    |            |               |   to FLASH_UnlockBank1 funct
 152:.//FWLIB/src/stm32f10x_flash.c ****    |-----------------------------------------------------------------------------------------------
 153:.//FWLIB/src/stm32f10x_flash.c ****    |FLASH_Lock                          |    Yes     |      Yes      | - For STM32F10X_XL devices: 
 154:.//FWLIB/src/stm32f10x_flash.c ****    |                                    |            |               | - For other devices: lock Ba
 155:.//FWLIB/src/stm32f10x_flash.c ****    |                                    |            |               |   to FLASH_LockBank1 functio
 156:.//FWLIB/src/stm32f10x_flash.c ****    |-----------------------------------------------------------------------------------------------
 157:.//FWLIB/src/stm32f10x_flash.c ****    |FLASH_ErasePage                     |    Yes     |      Yes      | - For STM32F10x_XL devices: 
 158:.//FWLIB/src/stm32f10x_flash.c ****    |                                    |            |               | - For other devices: erase a
 159:.//FWLIB/src/stm32f10x_flash.c ****    |-----------------------------------------------------------------------------------------------
 160:.//FWLIB/src/stm32f10x_flash.c ****    |FLASH_EraseAllPages                 |    Yes     |      Yes      | - For STM32F10x_XL devices: 
 161:.//FWLIB/src/stm32f10x_flash.c ****    |                                    |            |               | - For other devices: erase a
 162:.//FWLIB/src/stm32f10x_flash.c ****    |-----------------------------------------------------------------------------------------------
 163:.//FWLIB/src/stm32f10x_flash.c ****    |FLASH_EraseOptionBytes              |    Yes     |      Yes      | No change                   
 164:.//FWLIB/src/stm32f10x_flash.c ****    |-----------------------------------------------------------------------------------------------
 165:.//FWLIB/src/stm32f10x_flash.c ****    |FLASH_ProgramWord                   |    Yes     |      Yes      | Updated to program up to 1MB
 166:.//FWLIB/src/stm32f10x_flash.c ****    |-----------------------------------------------------------------------------------------------
 167:.//FWLIB/src/stm32f10x_flash.c ****    |FLASH_ProgramHalfWord               |    Yes     |      Yes      | Updated to program up to 1MB
 168:.//FWLIB/src/stm32f10x_flash.c ****    |-----------------------------------------------------------------------------------------------
 169:.//FWLIB/src/stm32f10x_flash.c ****    |FLASH_ProgramOptionByteData         |    Yes     |      Yes      | No change                   
 170:.//FWLIB/src/stm32f10x_flash.c ****    |-----------------------------------------------------------------------------------------------
 171:.//FWLIB/src/stm32f10x_flash.c ****    |FLASH_EnableWriteProtection         |    Yes     |      Yes      | No change                   
 172:.//FWLIB/src/stm32f10x_flash.c ****    |-----------------------------------------------------------------------------------------------
 173:.//FWLIB/src/stm32f10x_flash.c ****    |FLASH_ReadOutProtection             |    Yes     |      Yes      | No change                   
 174:.//FWLIB/src/stm32f10x_flash.c ****    |-----------------------------------------------------------------------------------------------
 175:.//FWLIB/src/stm32f10x_flash.c ****    |FLASH_UserOptionByteConfig          |    Yes     |      Yes      | No change                   
 176:.//FWLIB/src/stm32f10x_flash.c ****    |-----------------------------------------------------------------------------------------------
 177:.//FWLIB/src/stm32f10x_flash.c ****    |FLASH_GetUserOptionByte             |    Yes     |      Yes      | No change                   
 178:.//FWLIB/src/stm32f10x_flash.c ****    |-----------------------------------------------------------------------------------------------
 179:.//FWLIB/src/stm32f10x_flash.c ****    |FLASH_GetWriteProtectionOptionByte  |    Yes     |      Yes      | No change                   
 180:.//FWLIB/src/stm32f10x_flash.c ****    |-----------------------------------------------------------------------------------------------
 181:.//FWLIB/src/stm32f10x_flash.c ****    |FLASH_GetReadOutProtectionStatus    |    Yes     |      Yes      | No change                   
 182:.//FWLIB/src/stm32f10x_flash.c ****    |-----------------------------------------------------------------------------------------------
 183:.//FWLIB/src/stm32f10x_flash.c ****    |FLASH_GetPrefetchBufferStatus       |    Yes     |      Yes      | No change                   
 184:.//FWLIB/src/stm32f10x_flash.c ****    |-----------------------------------------------------------------------------------------------
 185:.//FWLIB/src/stm32f10x_flash.c ****    |FLASH_ITConfig                      |    Yes     |      Yes      | - For STM32F10x_XL devices: 
 186:.//FWLIB/src/stm32f10x_flash.c ****    |                                    |            |               | - For other devices: enable 
 187:.//FWLIB/src/stm32f10x_flash.c ****    |-----------------------------------------------------------------------------------------------
 188:.//FWLIB/src/stm32f10x_flash.c ****    |FLASH_GetFlagStatus                 |    Yes     |      Yes      | - For STM32F10x_XL devices: 
 189:.//FWLIB/src/stm32f10x_flash.c ****    |                                    |            |               | - For other devices: return 
 190:.//FWLIB/src/stm32f10x_flash.c ****    |-----------------------------------------------------------------------------------------------
 191:.//FWLIB/src/stm32f10x_flash.c ****    |FLASH_ClearFlag                     |    Yes     |      Yes      | - For STM32F10x_XL devices: 
 192:.//FWLIB/src/stm32f10x_flash.c ****    |                                    |            |               | - For other devices: clear B
 193:.//FWLIB/src/stm32f10x_flash.c ****    |-----------------------------------------------------------------------------------------------
 194:.//FWLIB/src/stm32f10x_flash.c ****    |FLASH_GetStatus                     |    Yes     |      Yes      | - Return the status of Bank1
 195:.//FWLIB/src/stm32f10x_flash.c ****    |                                    |            |               |   equivalent to FLASH_GetBan
 196:.//FWLIB/src/stm32f10x_flash.c ****    |-----------------------------------------------------------------------------------------------
 197:.//FWLIB/src/stm32f10x_flash.c ****    |FLASH_WaitForLastOperation          |    Yes     |      Yes      | - Wait for Bank1 last operat
 198:.//FWLIB/src/stm32f10x_flash.c ****    |                                    |            |               |   equivalent to: FLASH_WaitF
 199:.//FWLIB/src/stm32f10x_flash.c ****    +-----------------------------------------------------------------------------------------------
 200:.//FWLIB/src/stm32f10x_flash.c **** 
 201:.//FWLIB/src/stm32f10x_flash.c ****    ************************************************************************************************
 202:.//FWLIB/src/stm32f10x_flash.c ****    * New functions used for all STM32F10x devices to manage Bank1:                                 
ARM GAS  /var/folders/v3/pl5z0pl12fx5br3g9j_y4ffr0000gn/T//cchvY1ju.s 			page 5


 203:.//FWLIB/src/stm32f10x_flash.c ****    *   - These functions are mainly useful for STM32F10x_XL density devices, to have separate contr
 204:.//FWLIB/src/stm32f10x_flash.c ****    *   - For other devices, these functions are optional (covered by functions listed above)       
 205:.//FWLIB/src/stm32f10x_flash.c ****    ************************************************************************************************
 206:.//FWLIB/src/stm32f10x_flash.c ****    +-----------------------------------------------------------------------------------------------
 207:.//FWLIB/src/stm32f10x_flash.c ****    |       Functions prototypes         |STM32F10x_XL|Other STM32F10x|    Comments                 
 208:.//FWLIB/src/stm32f10x_flash.c ****    |                                    |   devices  |  devices      |                             
 209:.//FWLIB/src/stm32f10x_flash.c ****    |-----------------------------------------------------------------------------------------------
 210:.//FWLIB/src/stm32f10x_flash.c ****    | FLASH_UnlockBank1                  |    Yes     |      Yes      | - Unlock Bank1              
 211:.//FWLIB/src/stm32f10x_flash.c ****    |-----------------------------------------------------------------------------------------------
 212:.//FWLIB/src/stm32f10x_flash.c ****    |FLASH_LockBank1                     |    Yes     |      Yes      | - Lock Bank1                
 213:.//FWLIB/src/stm32f10x_flash.c ****    |-----------------------------------------------------------------------------------------------
 214:.//FWLIB/src/stm32f10x_flash.c ****    | FLASH_EraseAllBank1Pages           |    Yes     |      Yes      | - Erase all pages in Bank1  
 215:.//FWLIB/src/stm32f10x_flash.c ****    |-----------------------------------------------------------------------------------------------
 216:.//FWLIB/src/stm32f10x_flash.c ****    | FLASH_GetBank1Status               |    Yes     |      Yes      | - Return the status of Bank1
 217:.//FWLIB/src/stm32f10x_flash.c ****    |-----------------------------------------------------------------------------------------------
 218:.//FWLIB/src/stm32f10x_flash.c ****    | FLASH_WaitForLastBank1Operation    |    Yes     |      Yes      | - Wait for Bank1 last operat
 219:.//FWLIB/src/stm32f10x_flash.c ****    +-----------------------------------------------------------------------------------------------
 220:.//FWLIB/src/stm32f10x_flash.c **** 
 221:.//FWLIB/src/stm32f10x_flash.c ****    *****************************************************************************
 222:.//FWLIB/src/stm32f10x_flash.c ****    * New Functions used only with STM32F10x_XL density devices to manage Bank2 *
 223:.//FWLIB/src/stm32f10x_flash.c ****    *****************************************************************************
 224:.//FWLIB/src/stm32f10x_flash.c ****    +-----------------------------------------------------------------------------------------------
 225:.//FWLIB/src/stm32f10x_flash.c ****    |       Functions prototypes         |STM32F10x_XL|Other STM32F10x|    Comments                 
 226:.//FWLIB/src/stm32f10x_flash.c ****    |                                    |   devices  |  devices      |                             
 227:.//FWLIB/src/stm32f10x_flash.c ****    |-----------------------------------------------------------------------------------------------
 228:.//FWLIB/src/stm32f10x_flash.c ****    | FLASH_UnlockBank2                  |    Yes     |      No       | - Unlock Bank2              
 229:.//FWLIB/src/stm32f10x_flash.c ****    |-----------------------------------------------------------------------------------------------
 230:.//FWLIB/src/stm32f10x_flash.c ****    |FLASH_LockBank2                     |    Yes     |      No       | - Lock Bank2                
 231:.//FWLIB/src/stm32f10x_flash.c ****    |-----------------------------------------------------------------------------------------------
 232:.//FWLIB/src/stm32f10x_flash.c ****    | FLASH_EraseAllBank2Pages           |    Yes     |      No       | - Erase all pages in Bank2  
 233:.//FWLIB/src/stm32f10x_flash.c ****    |-----------------------------------------------------------------------------------------------
 234:.//FWLIB/src/stm32f10x_flash.c ****    | FLASH_GetBank2Status               |    Yes     |      No       | - Return the status of Bank2
 235:.//FWLIB/src/stm32f10x_flash.c ****    |-----------------------------------------------------------------------------------------------
 236:.//FWLIB/src/stm32f10x_flash.c ****    | FLASH_WaitForLastBank2Operation    |    Yes     |      No       | - Wait for Bank2 last operat
 237:.//FWLIB/src/stm32f10x_flash.c ****    |-----------------------------------------------------------------------------------------------
 238:.//FWLIB/src/stm32f10x_flash.c ****    | FLASH_BootConfig                   |    Yes     |      No       | - Configure to boot from Ban
 239:.//FWLIB/src/stm32f10x_flash.c ****    +-----------------------------------------------------------------------------------------------
 240:.//FWLIB/src/stm32f10x_flash.c **** @endcode
 241:.//FWLIB/src/stm32f10x_flash.c **** */
 242:.//FWLIB/src/stm32f10x_flash.c **** 
 243:.//FWLIB/src/stm32f10x_flash.c **** 
 244:.//FWLIB/src/stm32f10x_flash.c **** /**
 245:.//FWLIB/src/stm32f10x_flash.c ****   * @brief  Sets the code latency value.
 246:.//FWLIB/src/stm32f10x_flash.c ****   * @note   This function can be used for all STM32F10x devices.
 247:.//FWLIB/src/stm32f10x_flash.c ****   * @param  FLASH_Latency: specifies the FLASH Latency value.
 248:.//FWLIB/src/stm32f10x_flash.c ****   *   This parameter can be one of the following values:
 249:.//FWLIB/src/stm32f10x_flash.c ****   *     @arg FLASH_Latency_0: FLASH Zero Latency cycle
 250:.//FWLIB/src/stm32f10x_flash.c ****   *     @arg FLASH_Latency_1: FLASH One Latency cycle
 251:.//FWLIB/src/stm32f10x_flash.c ****   *     @arg FLASH_Latency_2: FLASH Two Latency cycles
 252:.//FWLIB/src/stm32f10x_flash.c ****   * @retval None
 253:.//FWLIB/src/stm32f10x_flash.c ****   */
 254:.//FWLIB/src/stm32f10x_flash.c **** void FLASH_SetLatency(uint32_t FLASH_Latency)
 255:.//FWLIB/src/stm32f10x_flash.c **** {
  28              		.loc 1 255 0
  29              		.cfi_startproc
  30              		@ args = 0, pretend = 0, frame = 0
  31              		@ frame_needed = 0, uses_anonymous_args = 0
ARM GAS  /var/folders/v3/pl5z0pl12fx5br3g9j_y4ffr0000gn/T//cchvY1ju.s 			page 6


  32              		@ link register save eliminated.
  33              	.LVL0:
 256:.//FWLIB/src/stm32f10x_flash.c ****   uint32_t tmpreg = 0;
 257:.//FWLIB/src/stm32f10x_flash.c ****   
 258:.//FWLIB/src/stm32f10x_flash.c ****   /* Check the parameters */
 259:.//FWLIB/src/stm32f10x_flash.c ****   assert_param(IS_FLASH_LATENCY(FLASH_Latency));
 260:.//FWLIB/src/stm32f10x_flash.c ****   
 261:.//FWLIB/src/stm32f10x_flash.c ****   /* Read the ACR register */
 262:.//FWLIB/src/stm32f10x_flash.c ****   tmpreg = FLASH->ACR;  
  34              		.loc 1 262 0
  35 0000 034A     		ldr	r2, .L2
  36 0002 1368     		ldr	r3, [r2]
  37              	.LVL1:
 263:.//FWLIB/src/stm32f10x_flash.c ****   
 264:.//FWLIB/src/stm32f10x_flash.c ****   /* Sets the Latency value */
 265:.//FWLIB/src/stm32f10x_flash.c ****   tmpreg &= ACR_LATENCY_Mask;
  38              		.loc 1 265 0
  39 0004 03F03803 		and	r3, r3, #56
  40              	.LVL2:
 266:.//FWLIB/src/stm32f10x_flash.c ****   tmpreg |= FLASH_Latency;
  41              		.loc 1 266 0
  42 0008 1843     		orrs	r0, r0, r3
  43              	.LVL3:
 267:.//FWLIB/src/stm32f10x_flash.c ****   
 268:.//FWLIB/src/stm32f10x_flash.c ****   /* Write the ACR register */
 269:.//FWLIB/src/stm32f10x_flash.c ****   FLASH->ACR = tmpreg;
  44              		.loc 1 269 0
  45 000a 1060     		str	r0, [r2]
  46 000c 7047     		bx	lr
  47              	.L3:
  48 000e 00BF     		.align	2
  49              	.L2:
  50 0010 00200240 		.word	1073881088
  51              		.cfi_endproc
  52              	.LFE29:
  54              		.section	.text.FLASH_HalfCycleAccessCmd,"ax",%progbits
  55              		.align	2
  56              		.global	FLASH_HalfCycleAccessCmd
  57              		.thumb
  58              		.thumb_func
  60              	FLASH_HalfCycleAccessCmd:
  61              	.LFB30:
 270:.//FWLIB/src/stm32f10x_flash.c **** }
 271:.//FWLIB/src/stm32f10x_flash.c **** 
 272:.//FWLIB/src/stm32f10x_flash.c **** /**
 273:.//FWLIB/src/stm32f10x_flash.c ****   * @brief  Enables or disables the Half cycle flash access.
 274:.//FWLIB/src/stm32f10x_flash.c ****   * @note   This function can be used for all STM32F10x devices.
 275:.//FWLIB/src/stm32f10x_flash.c ****   * @param  FLASH_HalfCycleAccess: specifies the FLASH Half cycle Access mode.
 276:.//FWLIB/src/stm32f10x_flash.c ****   *   This parameter can be one of the following values:
 277:.//FWLIB/src/stm32f10x_flash.c ****   *     @arg FLASH_HalfCycleAccess_Enable: FLASH Half Cycle Enable
 278:.//FWLIB/src/stm32f10x_flash.c ****   *     @arg FLASH_HalfCycleAccess_Disable: FLASH Half Cycle Disable
 279:.//FWLIB/src/stm32f10x_flash.c ****   * @retval None
 280:.//FWLIB/src/stm32f10x_flash.c ****   */
 281:.//FWLIB/src/stm32f10x_flash.c **** void FLASH_HalfCycleAccessCmd(uint32_t FLASH_HalfCycleAccess)
 282:.//FWLIB/src/stm32f10x_flash.c **** {
  62              		.loc 1 282 0
  63              		.cfi_startproc
ARM GAS  /var/folders/v3/pl5z0pl12fx5br3g9j_y4ffr0000gn/T//cchvY1ju.s 			page 7


  64              		@ args = 0, pretend = 0, frame = 0
  65              		@ frame_needed = 0, uses_anonymous_args = 0
  66              		@ link register save eliminated.
  67              	.LVL4:
 283:.//FWLIB/src/stm32f10x_flash.c ****   /* Check the parameters */
 284:.//FWLIB/src/stm32f10x_flash.c ****   assert_param(IS_FLASH_HALFCYCLEACCESS_STATE(FLASH_HalfCycleAccess));
 285:.//FWLIB/src/stm32f10x_flash.c ****   
 286:.//FWLIB/src/stm32f10x_flash.c ****   /* Enable or disable the Half cycle access */
 287:.//FWLIB/src/stm32f10x_flash.c ****   FLASH->ACR &= ACR_HLFCYA_Mask;
  68              		.loc 1 287 0
  69 0000 044B     		ldr	r3, .L5
  70 0002 1A68     		ldr	r2, [r3]
  71 0004 22F00802 		bic	r2, r2, #8
  72 0008 1A60     		str	r2, [r3]
 288:.//FWLIB/src/stm32f10x_flash.c ****   FLASH->ACR |= FLASH_HalfCycleAccess;
  73              		.loc 1 288 0
  74 000a 1A68     		ldr	r2, [r3]
  75 000c 1043     		orrs	r0, r0, r2
  76              	.LVL5:
  77 000e 1860     		str	r0, [r3]
  78 0010 7047     		bx	lr
  79              	.L6:
  80 0012 00BF     		.align	2
  81              	.L5:
  82 0014 00200240 		.word	1073881088
  83              		.cfi_endproc
  84              	.LFE30:
  86              		.section	.text.FLASH_PrefetchBufferCmd,"ax",%progbits
  87              		.align	2
  88              		.global	FLASH_PrefetchBufferCmd
  89              		.thumb
  90              		.thumb_func
  92              	FLASH_PrefetchBufferCmd:
  93              	.LFB31:
 289:.//FWLIB/src/stm32f10x_flash.c **** }
 290:.//FWLIB/src/stm32f10x_flash.c **** 
 291:.//FWLIB/src/stm32f10x_flash.c **** /**
 292:.//FWLIB/src/stm32f10x_flash.c ****   * @brief  Enables or disables the Prefetch Buffer.
 293:.//FWLIB/src/stm32f10x_flash.c ****   * @note   This function can be used for all STM32F10x devices.
 294:.//FWLIB/src/stm32f10x_flash.c ****   * @param  FLASH_PrefetchBuffer: specifies the Prefetch buffer status.
 295:.//FWLIB/src/stm32f10x_flash.c ****   *   This parameter can be one of the following values:
 296:.//FWLIB/src/stm32f10x_flash.c ****   *     @arg FLASH_PrefetchBuffer_Enable: FLASH Prefetch Buffer Enable
 297:.//FWLIB/src/stm32f10x_flash.c ****   *     @arg FLASH_PrefetchBuffer_Disable: FLASH Prefetch Buffer Disable
 298:.//FWLIB/src/stm32f10x_flash.c ****   * @retval None
 299:.//FWLIB/src/stm32f10x_flash.c ****   */
 300:.//FWLIB/src/stm32f10x_flash.c **** void FLASH_PrefetchBufferCmd(uint32_t FLASH_PrefetchBuffer)
 301:.//FWLIB/src/stm32f10x_flash.c **** {
  94              		.loc 1 301 0
  95              		.cfi_startproc
  96              		@ args = 0, pretend = 0, frame = 0
  97              		@ frame_needed = 0, uses_anonymous_args = 0
  98              		@ link register save eliminated.
  99              	.LVL6:
 302:.//FWLIB/src/stm32f10x_flash.c ****   /* Check the parameters */
 303:.//FWLIB/src/stm32f10x_flash.c ****   assert_param(IS_FLASH_PREFETCHBUFFER_STATE(FLASH_PrefetchBuffer));
 304:.//FWLIB/src/stm32f10x_flash.c ****   
 305:.//FWLIB/src/stm32f10x_flash.c ****   /* Enable or disable the Prefetch Buffer */
ARM GAS  /var/folders/v3/pl5z0pl12fx5br3g9j_y4ffr0000gn/T//cchvY1ju.s 			page 8


 306:.//FWLIB/src/stm32f10x_flash.c ****   FLASH->ACR &= ACR_PRFTBE_Mask;
 100              		.loc 1 306 0
 101 0000 044B     		ldr	r3, .L8
 102 0002 1A68     		ldr	r2, [r3]
 103 0004 22F01002 		bic	r2, r2, #16
 104 0008 1A60     		str	r2, [r3]
 307:.//FWLIB/src/stm32f10x_flash.c ****   FLASH->ACR |= FLASH_PrefetchBuffer;
 105              		.loc 1 307 0
 106 000a 1A68     		ldr	r2, [r3]
 107 000c 1043     		orrs	r0, r0, r2
 108              	.LVL7:
 109 000e 1860     		str	r0, [r3]
 110 0010 7047     		bx	lr
 111              	.L9:
 112 0012 00BF     		.align	2
 113              	.L8:
 114 0014 00200240 		.word	1073881088
 115              		.cfi_endproc
 116              	.LFE31:
 118              		.section	.text.FLASH_Unlock,"ax",%progbits
 119              		.align	2
 120              		.global	FLASH_Unlock
 121              		.thumb
 122              		.thumb_func
 124              	FLASH_Unlock:
 125              	.LFB32:
 308:.//FWLIB/src/stm32f10x_flash.c **** }
 309:.//FWLIB/src/stm32f10x_flash.c **** 
 310:.//FWLIB/src/stm32f10x_flash.c **** /**
 311:.//FWLIB/src/stm32f10x_flash.c ****   * @brief  Unlocks the FLASH Program Erase Controller.
 312:.//FWLIB/src/stm32f10x_flash.c ****   * @note   This function can be used for all STM32F10x devices.
 313:.//FWLIB/src/stm32f10x_flash.c ****   *         - For STM32F10X_XL devices this function unlocks Bank1 and Bank2.
 314:.//FWLIB/src/stm32f10x_flash.c ****   *         - For all other devices it unlocks Bank1 and it is equivalent 
 315:.//FWLIB/src/stm32f10x_flash.c ****   *           to FLASH_UnlockBank1 function.. 
 316:.//FWLIB/src/stm32f10x_flash.c ****   * @param  None
 317:.//FWLIB/src/stm32f10x_flash.c ****   * @retval None
 318:.//FWLIB/src/stm32f10x_flash.c ****   */
 319:.//FWLIB/src/stm32f10x_flash.c **** void FLASH_Unlock(void)
 320:.//FWLIB/src/stm32f10x_flash.c **** {
 126              		.loc 1 320 0
 127              		.cfi_startproc
 128              		@ args = 0, pretend = 0, frame = 0
 129              		@ frame_needed = 0, uses_anonymous_args = 0
 130              		@ link register save eliminated.
 321:.//FWLIB/src/stm32f10x_flash.c ****   /* Authorize the FPEC of Bank1 Access */
 322:.//FWLIB/src/stm32f10x_flash.c ****   FLASH->KEYR = FLASH_KEY1;
 131              		.loc 1 322 0
 132 0000 034B     		ldr	r3, .L11
 133 0002 044A     		ldr	r2, .L11+4
 134 0004 5A60     		str	r2, [r3, #4]
 323:.//FWLIB/src/stm32f10x_flash.c ****   FLASH->KEYR = FLASH_KEY2;
 135              		.loc 1 323 0
 136 0006 02F18832 		add	r2, r2, #-2004318072
 137 000a 5A60     		str	r2, [r3, #4]
 138 000c 7047     		bx	lr
 139              	.L12:
 140 000e 00BF     		.align	2
ARM GAS  /var/folders/v3/pl5z0pl12fx5br3g9j_y4ffr0000gn/T//cchvY1ju.s 			page 9


 141              	.L11:
 142 0010 00200240 		.word	1073881088
 143 0014 23016745 		.word	1164378403
 144              		.cfi_endproc
 145              	.LFE32:
 147              		.section	.text.FLASH_UnlockBank1,"ax",%progbits
 148              		.align	2
 149              		.global	FLASH_UnlockBank1
 150              		.thumb
 151              		.thumb_func
 153              	FLASH_UnlockBank1:
 154              	.LFB33:
 324:.//FWLIB/src/stm32f10x_flash.c **** 
 325:.//FWLIB/src/stm32f10x_flash.c **** #ifdef STM32F10X_XL
 326:.//FWLIB/src/stm32f10x_flash.c ****   /* Authorize the FPEC of Bank2 Access */
 327:.//FWLIB/src/stm32f10x_flash.c ****   FLASH->KEYR2 = FLASH_KEY1;
 328:.//FWLIB/src/stm32f10x_flash.c ****   FLASH->KEYR2 = FLASH_KEY2;
 329:.//FWLIB/src/stm32f10x_flash.c **** #endif /* STM32F10X_XL */
 330:.//FWLIB/src/stm32f10x_flash.c **** }
 331:.//FWLIB/src/stm32f10x_flash.c **** /**
 332:.//FWLIB/src/stm32f10x_flash.c ****   * @brief  Unlocks the FLASH Bank1 Program Erase Controller.
 333:.//FWLIB/src/stm32f10x_flash.c ****   * @note   This function can be used for all STM32F10x devices.
 334:.//FWLIB/src/stm32f10x_flash.c ****   *         - For STM32F10X_XL devices this function unlocks Bank1.
 335:.//FWLIB/src/stm32f10x_flash.c ****   *         - For all other devices it unlocks Bank1 and it is 
 336:.//FWLIB/src/stm32f10x_flash.c ****   *           equivalent to FLASH_Unlock function.
 337:.//FWLIB/src/stm32f10x_flash.c ****   * @param  None
 338:.//FWLIB/src/stm32f10x_flash.c ****   * @retval None
 339:.//FWLIB/src/stm32f10x_flash.c ****   */
 340:.//FWLIB/src/stm32f10x_flash.c **** void FLASH_UnlockBank1(void)
 341:.//FWLIB/src/stm32f10x_flash.c **** {
 155              		.loc 1 341 0
 156              		.cfi_startproc
 157              		@ args = 0, pretend = 0, frame = 0
 158              		@ frame_needed = 0, uses_anonymous_args = 0
 159              		@ link register save eliminated.
 342:.//FWLIB/src/stm32f10x_flash.c ****   /* Authorize the FPEC of Bank1 Access */
 343:.//FWLIB/src/stm32f10x_flash.c ****   FLASH->KEYR = FLASH_KEY1;
 160              		.loc 1 343 0
 161 0000 034B     		ldr	r3, .L14
 162 0002 044A     		ldr	r2, .L14+4
 163 0004 5A60     		str	r2, [r3, #4]
 344:.//FWLIB/src/stm32f10x_flash.c ****   FLASH->KEYR = FLASH_KEY2;
 164              		.loc 1 344 0
 165 0006 02F18832 		add	r2, r2, #-2004318072
 166 000a 5A60     		str	r2, [r3, #4]
 167 000c 7047     		bx	lr
 168              	.L15:
 169 000e 00BF     		.align	2
 170              	.L14:
 171 0010 00200240 		.word	1073881088
 172 0014 23016745 		.word	1164378403
 173              		.cfi_endproc
 174              	.LFE33:
 176              		.section	.text.FLASH_Lock,"ax",%progbits
 177              		.align	2
 178              		.global	FLASH_Lock
 179              		.thumb
ARM GAS  /var/folders/v3/pl5z0pl12fx5br3g9j_y4ffr0000gn/T//cchvY1ju.s 			page 10


 180              		.thumb_func
 182              	FLASH_Lock:
 183              	.LFB34:
 345:.//FWLIB/src/stm32f10x_flash.c **** }
 346:.//FWLIB/src/stm32f10x_flash.c **** 
 347:.//FWLIB/src/stm32f10x_flash.c **** #ifdef STM32F10X_XL
 348:.//FWLIB/src/stm32f10x_flash.c **** /**
 349:.//FWLIB/src/stm32f10x_flash.c ****   * @brief  Unlocks the FLASH Bank2 Program Erase Controller.
 350:.//FWLIB/src/stm32f10x_flash.c ****   * @note   This function can be used only for STM32F10X_XL density devices.
 351:.//FWLIB/src/stm32f10x_flash.c ****   * @param  None
 352:.//FWLIB/src/stm32f10x_flash.c ****   * @retval None
 353:.//FWLIB/src/stm32f10x_flash.c ****   */
 354:.//FWLIB/src/stm32f10x_flash.c **** void FLASH_UnlockBank2(void)
 355:.//FWLIB/src/stm32f10x_flash.c **** {
 356:.//FWLIB/src/stm32f10x_flash.c ****   /* Authorize the FPEC of Bank2 Access */
 357:.//FWLIB/src/stm32f10x_flash.c ****   FLASH->KEYR2 = FLASH_KEY1;
 358:.//FWLIB/src/stm32f10x_flash.c ****   FLASH->KEYR2 = FLASH_KEY2;
 359:.//FWLIB/src/stm32f10x_flash.c **** 
 360:.//FWLIB/src/stm32f10x_flash.c **** }
 361:.//FWLIB/src/stm32f10x_flash.c **** #endif /* STM32F10X_XL */
 362:.//FWLIB/src/stm32f10x_flash.c **** 
 363:.//FWLIB/src/stm32f10x_flash.c **** /**
 364:.//FWLIB/src/stm32f10x_flash.c ****   * @brief  Locks the FLASH Program Erase Controller.
 365:.//FWLIB/src/stm32f10x_flash.c ****   * @note   This function can be used for all STM32F10x devices.
 366:.//FWLIB/src/stm32f10x_flash.c ****   *         - For STM32F10X_XL devices this function Locks Bank1 and Bank2.
 367:.//FWLIB/src/stm32f10x_flash.c ****   *         - For all other devices it Locks Bank1 and it is equivalent 
 368:.//FWLIB/src/stm32f10x_flash.c ****   *           to FLASH_LockBank1 function.
 369:.//FWLIB/src/stm32f10x_flash.c ****   * @param  None
 370:.//FWLIB/src/stm32f10x_flash.c ****   * @retval None
 371:.//FWLIB/src/stm32f10x_flash.c ****   */
 372:.//FWLIB/src/stm32f10x_flash.c **** void FLASH_Lock(void)
 373:.//FWLIB/src/stm32f10x_flash.c **** {
 184              		.loc 1 373 0
 185              		.cfi_startproc
 186              		@ args = 0, pretend = 0, frame = 0
 187              		@ frame_needed = 0, uses_anonymous_args = 0
 188              		@ link register save eliminated.
 374:.//FWLIB/src/stm32f10x_flash.c ****   /* Set the Lock Bit to lock the FPEC and the CR of  Bank1 */
 375:.//FWLIB/src/stm32f10x_flash.c ****   FLASH->CR |= CR_LOCK_Set;
 189              		.loc 1 375 0
 190 0000 024A     		ldr	r2, .L17
 191 0002 1369     		ldr	r3, [r2, #16]
 192 0004 43F08003 		orr	r3, r3, #128
 193 0008 1361     		str	r3, [r2, #16]
 194 000a 7047     		bx	lr
 195              	.L18:
 196              		.align	2
 197              	.L17:
 198 000c 00200240 		.word	1073881088
 199              		.cfi_endproc
 200              	.LFE34:
 202              		.section	.text.FLASH_LockBank1,"ax",%progbits
 203              		.align	2
 204              		.global	FLASH_LockBank1
 205              		.thumb
 206              		.thumb_func
 208              	FLASH_LockBank1:
ARM GAS  /var/folders/v3/pl5z0pl12fx5br3g9j_y4ffr0000gn/T//cchvY1ju.s 			page 11


 209              	.LFB35:
 376:.//FWLIB/src/stm32f10x_flash.c **** 
 377:.//FWLIB/src/stm32f10x_flash.c **** #ifdef STM32F10X_XL
 378:.//FWLIB/src/stm32f10x_flash.c ****   /* Set the Lock Bit to lock the FPEC and the CR of  Bank2 */
 379:.//FWLIB/src/stm32f10x_flash.c ****   FLASH->CR2 |= CR_LOCK_Set;
 380:.//FWLIB/src/stm32f10x_flash.c **** #endif /* STM32F10X_XL */
 381:.//FWLIB/src/stm32f10x_flash.c **** }
 382:.//FWLIB/src/stm32f10x_flash.c **** 
 383:.//FWLIB/src/stm32f10x_flash.c **** /**
 384:.//FWLIB/src/stm32f10x_flash.c ****   * @brief  Locks the FLASH Bank1 Program Erase Controller.
 385:.//FWLIB/src/stm32f10x_flash.c ****   * @note   this function can be used for all STM32F10x devices.
 386:.//FWLIB/src/stm32f10x_flash.c ****   *         - For STM32F10X_XL devices this function Locks Bank1.
 387:.//FWLIB/src/stm32f10x_flash.c ****   *         - For all other devices it Locks Bank1 and it is equivalent 
 388:.//FWLIB/src/stm32f10x_flash.c ****   *           to FLASH_Lock function.
 389:.//FWLIB/src/stm32f10x_flash.c ****   * @param  None
 390:.//FWLIB/src/stm32f10x_flash.c ****   * @retval None
 391:.//FWLIB/src/stm32f10x_flash.c ****   */
 392:.//FWLIB/src/stm32f10x_flash.c **** void FLASH_LockBank1(void)
 393:.//FWLIB/src/stm32f10x_flash.c **** {
 210              		.loc 1 393 0
 211              		.cfi_startproc
 212              		@ args = 0, pretend = 0, frame = 0
 213              		@ frame_needed = 0, uses_anonymous_args = 0
 214              		@ link register save eliminated.
 394:.//FWLIB/src/stm32f10x_flash.c ****   /* Set the Lock Bit to lock the FPEC and the CR of  Bank1 */
 395:.//FWLIB/src/stm32f10x_flash.c ****   FLASH->CR |= CR_LOCK_Set;
 215              		.loc 1 395 0
 216 0000 024A     		ldr	r2, .L20
 217 0002 1369     		ldr	r3, [r2, #16]
 218 0004 43F08003 		orr	r3, r3, #128
 219 0008 1361     		str	r3, [r2, #16]
 220 000a 7047     		bx	lr
 221              	.L21:
 222              		.align	2
 223              	.L20:
 224 000c 00200240 		.word	1073881088
 225              		.cfi_endproc
 226              	.LFE35:
 228              		.section	.text.FLASH_GetUserOptionByte,"ax",%progbits
 229              		.align	2
 230              		.global	FLASH_GetUserOptionByte
 231              		.thumb
 232              		.thumb_func
 234              	FLASH_GetUserOptionByte:
 235              	.LFB46:
 396:.//FWLIB/src/stm32f10x_flash.c **** }
 397:.//FWLIB/src/stm32f10x_flash.c **** 
 398:.//FWLIB/src/stm32f10x_flash.c **** #ifdef STM32F10X_XL
 399:.//FWLIB/src/stm32f10x_flash.c **** /**
 400:.//FWLIB/src/stm32f10x_flash.c ****   * @brief  Locks the FLASH Bank2 Program Erase Controller.
 401:.//FWLIB/src/stm32f10x_flash.c ****   * @note   This function can be used only for STM32F10X_XL density devices.
 402:.//FWLIB/src/stm32f10x_flash.c ****   * @param  None
 403:.//FWLIB/src/stm32f10x_flash.c ****   * @retval None
 404:.//FWLIB/src/stm32f10x_flash.c ****   */
 405:.//FWLIB/src/stm32f10x_flash.c **** void FLASH_LockBank2(void)
 406:.//FWLIB/src/stm32f10x_flash.c **** {
 407:.//FWLIB/src/stm32f10x_flash.c ****   /* Set the Lock Bit to lock the FPEC and the CR of  Bank2 */
ARM GAS  /var/folders/v3/pl5z0pl12fx5br3g9j_y4ffr0000gn/T//cchvY1ju.s 			page 12


 408:.//FWLIB/src/stm32f10x_flash.c ****   FLASH->CR2 |= CR_LOCK_Set;
 409:.//FWLIB/src/stm32f10x_flash.c **** }
 410:.//FWLIB/src/stm32f10x_flash.c **** #endif /* STM32F10X_XL */
 411:.//FWLIB/src/stm32f10x_flash.c **** 
 412:.//FWLIB/src/stm32f10x_flash.c **** /**
 413:.//FWLIB/src/stm32f10x_flash.c ****   * @brief  Erases a specified FLASH page.
 414:.//FWLIB/src/stm32f10x_flash.c ****   * @note   This function can be used for all STM32F10x devices.
 415:.//FWLIB/src/stm32f10x_flash.c ****   * @param  Page_Address: The page address to be erased.
 416:.//FWLIB/src/stm32f10x_flash.c ****   * @retval FLASH Status: The returned value can be: FLASH_BUSY, FLASH_ERROR_PG,
 417:.//FWLIB/src/stm32f10x_flash.c ****   *         FLASH_ERROR_WRP, FLASH_COMPLETE or FLASH_TIMEOUT.
 418:.//FWLIB/src/stm32f10x_flash.c ****   */
 419:.//FWLIB/src/stm32f10x_flash.c **** FLASH_Status FLASH_ErasePage(uint32_t Page_Address)
 420:.//FWLIB/src/stm32f10x_flash.c **** {
 421:.//FWLIB/src/stm32f10x_flash.c ****   FLASH_Status status = FLASH_COMPLETE;
 422:.//FWLIB/src/stm32f10x_flash.c ****   /* Check the parameters */
 423:.//FWLIB/src/stm32f10x_flash.c ****   assert_param(IS_FLASH_ADDRESS(Page_Address));
 424:.//FWLIB/src/stm32f10x_flash.c **** 
 425:.//FWLIB/src/stm32f10x_flash.c **** #ifdef STM32F10X_XL
 426:.//FWLIB/src/stm32f10x_flash.c ****   if(Page_Address < FLASH_BANK1_END_ADDRESS)  
 427:.//FWLIB/src/stm32f10x_flash.c ****   {
 428:.//FWLIB/src/stm32f10x_flash.c ****     /* Wait for last operation to be completed */
 429:.//FWLIB/src/stm32f10x_flash.c ****     status = FLASH_WaitForLastBank1Operation(EraseTimeout);
 430:.//FWLIB/src/stm32f10x_flash.c ****     if(status == FLASH_COMPLETE)
 431:.//FWLIB/src/stm32f10x_flash.c ****     { 
 432:.//FWLIB/src/stm32f10x_flash.c ****       /* if the previous operation is completed, proceed to erase the page */
 433:.//FWLIB/src/stm32f10x_flash.c ****       FLASH->CR|= CR_PER_Set;
 434:.//FWLIB/src/stm32f10x_flash.c ****       FLASH->AR = Page_Address; 
 435:.//FWLIB/src/stm32f10x_flash.c ****       FLASH->CR|= CR_STRT_Set;
 436:.//FWLIB/src/stm32f10x_flash.c ****     
 437:.//FWLIB/src/stm32f10x_flash.c ****       /* Wait for last operation to be completed */
 438:.//FWLIB/src/stm32f10x_flash.c ****       status = FLASH_WaitForLastBank1Operation(EraseTimeout);
 439:.//FWLIB/src/stm32f10x_flash.c **** 
 440:.//FWLIB/src/stm32f10x_flash.c ****       /* Disable the PER Bit */
 441:.//FWLIB/src/stm32f10x_flash.c ****       FLASH->CR &= CR_PER_Reset;
 442:.//FWLIB/src/stm32f10x_flash.c ****     }
 443:.//FWLIB/src/stm32f10x_flash.c ****   }
 444:.//FWLIB/src/stm32f10x_flash.c ****   else
 445:.//FWLIB/src/stm32f10x_flash.c ****   {
 446:.//FWLIB/src/stm32f10x_flash.c ****     /* Wait for last operation to be completed */
 447:.//FWLIB/src/stm32f10x_flash.c ****     status = FLASH_WaitForLastBank2Operation(EraseTimeout);
 448:.//FWLIB/src/stm32f10x_flash.c ****     if(status == FLASH_COMPLETE)
 449:.//FWLIB/src/stm32f10x_flash.c ****     { 
 450:.//FWLIB/src/stm32f10x_flash.c ****       /* if the previous operation is completed, proceed to erase the page */
 451:.//FWLIB/src/stm32f10x_flash.c ****       FLASH->CR2|= CR_PER_Set;
 452:.//FWLIB/src/stm32f10x_flash.c ****       FLASH->AR2 = Page_Address; 
 453:.//FWLIB/src/stm32f10x_flash.c ****       FLASH->CR2|= CR_STRT_Set;
 454:.//FWLIB/src/stm32f10x_flash.c ****     
 455:.//FWLIB/src/stm32f10x_flash.c ****       /* Wait for last operation to be completed */
 456:.//FWLIB/src/stm32f10x_flash.c ****       status = FLASH_WaitForLastBank2Operation(EraseTimeout);
 457:.//FWLIB/src/stm32f10x_flash.c ****       
 458:.//FWLIB/src/stm32f10x_flash.c ****       /* Disable the PER Bit */
 459:.//FWLIB/src/stm32f10x_flash.c ****       FLASH->CR2 &= CR_PER_Reset;
 460:.//FWLIB/src/stm32f10x_flash.c ****     }
 461:.//FWLIB/src/stm32f10x_flash.c ****   }
 462:.//FWLIB/src/stm32f10x_flash.c **** #else
 463:.//FWLIB/src/stm32f10x_flash.c ****   /* Wait for last operation to be completed */
 464:.//FWLIB/src/stm32f10x_flash.c ****   status = FLASH_WaitForLastOperation(EraseTimeout);
ARM GAS  /var/folders/v3/pl5z0pl12fx5br3g9j_y4ffr0000gn/T//cchvY1ju.s 			page 13


 465:.//FWLIB/src/stm32f10x_flash.c ****   
 466:.//FWLIB/src/stm32f10x_flash.c ****   if(status == FLASH_COMPLETE)
 467:.//FWLIB/src/stm32f10x_flash.c ****   { 
 468:.//FWLIB/src/stm32f10x_flash.c ****     /* if the previous operation is completed, proceed to erase the page */
 469:.//FWLIB/src/stm32f10x_flash.c ****     FLASH->CR|= CR_PER_Set;
 470:.//FWLIB/src/stm32f10x_flash.c ****     FLASH->AR = Page_Address; 
 471:.//FWLIB/src/stm32f10x_flash.c ****     FLASH->CR|= CR_STRT_Set;
 472:.//FWLIB/src/stm32f10x_flash.c ****     
 473:.//FWLIB/src/stm32f10x_flash.c ****     /* Wait for last operation to be completed */
 474:.//FWLIB/src/stm32f10x_flash.c ****     status = FLASH_WaitForLastOperation(EraseTimeout);
 475:.//FWLIB/src/stm32f10x_flash.c ****     
 476:.//FWLIB/src/stm32f10x_flash.c ****     /* Disable the PER Bit */
 477:.//FWLIB/src/stm32f10x_flash.c ****     FLASH->CR &= CR_PER_Reset;
 478:.//FWLIB/src/stm32f10x_flash.c ****   }
 479:.//FWLIB/src/stm32f10x_flash.c **** #endif /* STM32F10X_XL */
 480:.//FWLIB/src/stm32f10x_flash.c **** 
 481:.//FWLIB/src/stm32f10x_flash.c ****   /* Return the Erase Status */
 482:.//FWLIB/src/stm32f10x_flash.c ****   return status;
 483:.//FWLIB/src/stm32f10x_flash.c **** }
 484:.//FWLIB/src/stm32f10x_flash.c **** 
 485:.//FWLIB/src/stm32f10x_flash.c **** /**
 486:.//FWLIB/src/stm32f10x_flash.c ****   * @brief  Erases all FLASH pages.
 487:.//FWLIB/src/stm32f10x_flash.c ****   * @note   This function can be used for all STM32F10x devices.
 488:.//FWLIB/src/stm32f10x_flash.c ****   * @param  None
 489:.//FWLIB/src/stm32f10x_flash.c ****   * @retval FLASH Status: The returned value can be: FLASH_ERROR_PG,
 490:.//FWLIB/src/stm32f10x_flash.c ****   *         FLASH_ERROR_WRP, FLASH_COMPLETE or FLASH_TIMEOUT.
 491:.//FWLIB/src/stm32f10x_flash.c ****   */
 492:.//FWLIB/src/stm32f10x_flash.c **** FLASH_Status FLASH_EraseAllPages(void)
 493:.//FWLIB/src/stm32f10x_flash.c **** {
 494:.//FWLIB/src/stm32f10x_flash.c ****   FLASH_Status status = FLASH_COMPLETE;
 495:.//FWLIB/src/stm32f10x_flash.c **** 
 496:.//FWLIB/src/stm32f10x_flash.c **** #ifdef STM32F10X_XL
 497:.//FWLIB/src/stm32f10x_flash.c ****   /* Wait for last operation to be completed */
 498:.//FWLIB/src/stm32f10x_flash.c ****   status = FLASH_WaitForLastBank1Operation(EraseTimeout);
 499:.//FWLIB/src/stm32f10x_flash.c ****   
 500:.//FWLIB/src/stm32f10x_flash.c ****   if(status == FLASH_COMPLETE)
 501:.//FWLIB/src/stm32f10x_flash.c ****   {
 502:.//FWLIB/src/stm32f10x_flash.c ****     /* if the previous operation is completed, proceed to erase all pages */
 503:.//FWLIB/src/stm32f10x_flash.c ****      FLASH->CR |= CR_MER_Set;
 504:.//FWLIB/src/stm32f10x_flash.c ****      FLASH->CR |= CR_STRT_Set;
 505:.//FWLIB/src/stm32f10x_flash.c ****     
 506:.//FWLIB/src/stm32f10x_flash.c ****     /* Wait for last operation to be completed */
 507:.//FWLIB/src/stm32f10x_flash.c ****     status = FLASH_WaitForLastBank1Operation(EraseTimeout);
 508:.//FWLIB/src/stm32f10x_flash.c ****     
 509:.//FWLIB/src/stm32f10x_flash.c ****     /* Disable the MER Bit */
 510:.//FWLIB/src/stm32f10x_flash.c ****     FLASH->CR &= CR_MER_Reset;
 511:.//FWLIB/src/stm32f10x_flash.c ****   }    
 512:.//FWLIB/src/stm32f10x_flash.c ****   if(status == FLASH_COMPLETE)
 513:.//FWLIB/src/stm32f10x_flash.c ****   {
 514:.//FWLIB/src/stm32f10x_flash.c ****     /* if the previous operation is completed, proceed to erase all pages */
 515:.//FWLIB/src/stm32f10x_flash.c ****      FLASH->CR2 |= CR_MER_Set;
 516:.//FWLIB/src/stm32f10x_flash.c ****      FLASH->CR2 |= CR_STRT_Set;
 517:.//FWLIB/src/stm32f10x_flash.c ****     
 518:.//FWLIB/src/stm32f10x_flash.c ****     /* Wait for last operation to be completed */
 519:.//FWLIB/src/stm32f10x_flash.c ****     status = FLASH_WaitForLastBank2Operation(EraseTimeout);
 520:.//FWLIB/src/stm32f10x_flash.c ****     
 521:.//FWLIB/src/stm32f10x_flash.c ****     /* Disable the MER Bit */
ARM GAS  /var/folders/v3/pl5z0pl12fx5br3g9j_y4ffr0000gn/T//cchvY1ju.s 			page 14


 522:.//FWLIB/src/stm32f10x_flash.c ****     FLASH->CR2 &= CR_MER_Reset;
 523:.//FWLIB/src/stm32f10x_flash.c ****   }
 524:.//FWLIB/src/stm32f10x_flash.c **** #else
 525:.//FWLIB/src/stm32f10x_flash.c ****   /* Wait for last operation to be completed */
 526:.//FWLIB/src/stm32f10x_flash.c ****   status = FLASH_WaitForLastOperation(EraseTimeout);
 527:.//FWLIB/src/stm32f10x_flash.c ****   if(status == FLASH_COMPLETE)
 528:.//FWLIB/src/stm32f10x_flash.c ****   {
 529:.//FWLIB/src/stm32f10x_flash.c ****     /* if the previous operation is completed, proceed to erase all pages */
 530:.//FWLIB/src/stm32f10x_flash.c ****      FLASH->CR |= CR_MER_Set;
 531:.//FWLIB/src/stm32f10x_flash.c ****      FLASH->CR |= CR_STRT_Set;
 532:.//FWLIB/src/stm32f10x_flash.c ****     
 533:.//FWLIB/src/stm32f10x_flash.c ****     /* Wait for last operation to be completed */
 534:.//FWLIB/src/stm32f10x_flash.c ****     status = FLASH_WaitForLastOperation(EraseTimeout);
 535:.//FWLIB/src/stm32f10x_flash.c **** 
 536:.//FWLIB/src/stm32f10x_flash.c ****     /* Disable the MER Bit */
 537:.//FWLIB/src/stm32f10x_flash.c ****     FLASH->CR &= CR_MER_Reset;
 538:.//FWLIB/src/stm32f10x_flash.c ****   }
 539:.//FWLIB/src/stm32f10x_flash.c **** #endif /* STM32F10X_XL */
 540:.//FWLIB/src/stm32f10x_flash.c **** 
 541:.//FWLIB/src/stm32f10x_flash.c ****   /* Return the Erase Status */
 542:.//FWLIB/src/stm32f10x_flash.c ****   return status;
 543:.//FWLIB/src/stm32f10x_flash.c **** }
 544:.//FWLIB/src/stm32f10x_flash.c **** 
 545:.//FWLIB/src/stm32f10x_flash.c **** /**
 546:.//FWLIB/src/stm32f10x_flash.c ****   * @brief  Erases all Bank1 FLASH pages.
 547:.//FWLIB/src/stm32f10x_flash.c ****   * @note   This function can be used for all STM32F10x devices.
 548:.//FWLIB/src/stm32f10x_flash.c ****   *         - For STM32F10X_XL devices this function erases all Bank1 pages.
 549:.//FWLIB/src/stm32f10x_flash.c ****   *         - For all other devices it erases all Bank1 pages and it is equivalent 
 550:.//FWLIB/src/stm32f10x_flash.c ****   *           to FLASH_EraseAllPages function.
 551:.//FWLIB/src/stm32f10x_flash.c ****   * @param  None
 552:.//FWLIB/src/stm32f10x_flash.c ****   * @retval FLASH Status: The returned value can be: FLASH_ERROR_PG,
 553:.//FWLIB/src/stm32f10x_flash.c ****   *         FLASH_ERROR_WRP, FLASH_COMPLETE or FLASH_TIMEOUT.
 554:.//FWLIB/src/stm32f10x_flash.c ****   */
 555:.//FWLIB/src/stm32f10x_flash.c **** FLASH_Status FLASH_EraseAllBank1Pages(void)
 556:.//FWLIB/src/stm32f10x_flash.c **** {
 557:.//FWLIB/src/stm32f10x_flash.c ****   FLASH_Status status = FLASH_COMPLETE;
 558:.//FWLIB/src/stm32f10x_flash.c ****   /* Wait for last operation to be completed */
 559:.//FWLIB/src/stm32f10x_flash.c ****   status = FLASH_WaitForLastBank1Operation(EraseTimeout);
 560:.//FWLIB/src/stm32f10x_flash.c ****   
 561:.//FWLIB/src/stm32f10x_flash.c ****   if(status == FLASH_COMPLETE)
 562:.//FWLIB/src/stm32f10x_flash.c ****   {
 563:.//FWLIB/src/stm32f10x_flash.c ****     /* if the previous operation is completed, proceed to erase all pages */
 564:.//FWLIB/src/stm32f10x_flash.c ****      FLASH->CR |= CR_MER_Set;
 565:.//FWLIB/src/stm32f10x_flash.c ****      FLASH->CR |= CR_STRT_Set;
 566:.//FWLIB/src/stm32f10x_flash.c ****     
 567:.//FWLIB/src/stm32f10x_flash.c ****     /* Wait for last operation to be completed */
 568:.//FWLIB/src/stm32f10x_flash.c ****     status = FLASH_WaitForLastBank1Operation(EraseTimeout);
 569:.//FWLIB/src/stm32f10x_flash.c ****     
 570:.//FWLIB/src/stm32f10x_flash.c ****     /* Disable the MER Bit */
 571:.//FWLIB/src/stm32f10x_flash.c ****     FLASH->CR &= CR_MER_Reset;
 572:.//FWLIB/src/stm32f10x_flash.c ****   }    
 573:.//FWLIB/src/stm32f10x_flash.c ****   /* Return the Erase Status */
 574:.//FWLIB/src/stm32f10x_flash.c ****   return status;
 575:.//FWLIB/src/stm32f10x_flash.c **** }
 576:.//FWLIB/src/stm32f10x_flash.c **** 
 577:.//FWLIB/src/stm32f10x_flash.c **** #ifdef STM32F10X_XL
 578:.//FWLIB/src/stm32f10x_flash.c **** /**
ARM GAS  /var/folders/v3/pl5z0pl12fx5br3g9j_y4ffr0000gn/T//cchvY1ju.s 			page 15


 579:.//FWLIB/src/stm32f10x_flash.c ****   * @brief  Erases all Bank2 FLASH pages.
 580:.//FWLIB/src/stm32f10x_flash.c ****   * @note   This function can be used only for STM32F10x_XL density devices.
 581:.//FWLIB/src/stm32f10x_flash.c ****   * @param  None
 582:.//FWLIB/src/stm32f10x_flash.c ****   * @retval FLASH Status: The returned value can be: FLASH_ERROR_PG,
 583:.//FWLIB/src/stm32f10x_flash.c ****   *         FLASH_ERROR_WRP, FLASH_COMPLETE or FLASH_TIMEOUT.
 584:.//FWLIB/src/stm32f10x_flash.c ****   */
 585:.//FWLIB/src/stm32f10x_flash.c **** FLASH_Status FLASH_EraseAllBank2Pages(void)
 586:.//FWLIB/src/stm32f10x_flash.c **** {
 587:.//FWLIB/src/stm32f10x_flash.c ****   FLASH_Status status = FLASH_COMPLETE;
 588:.//FWLIB/src/stm32f10x_flash.c ****   /* Wait for last operation to be completed */
 589:.//FWLIB/src/stm32f10x_flash.c ****   status = FLASH_WaitForLastBank2Operation(EraseTimeout);
 590:.//FWLIB/src/stm32f10x_flash.c ****   
 591:.//FWLIB/src/stm32f10x_flash.c ****   if(status == FLASH_COMPLETE)
 592:.//FWLIB/src/stm32f10x_flash.c ****   {
 593:.//FWLIB/src/stm32f10x_flash.c ****     /* if the previous operation is completed, proceed to erase all pages */
 594:.//FWLIB/src/stm32f10x_flash.c ****      FLASH->CR2 |= CR_MER_Set;
 595:.//FWLIB/src/stm32f10x_flash.c ****      FLASH->CR2 |= CR_STRT_Set;
 596:.//FWLIB/src/stm32f10x_flash.c ****     
 597:.//FWLIB/src/stm32f10x_flash.c ****     /* Wait for last operation to be completed */
 598:.//FWLIB/src/stm32f10x_flash.c ****     status = FLASH_WaitForLastBank2Operation(EraseTimeout);
 599:.//FWLIB/src/stm32f10x_flash.c **** 
 600:.//FWLIB/src/stm32f10x_flash.c ****     /* Disable the MER Bit */
 601:.//FWLIB/src/stm32f10x_flash.c ****     FLASH->CR2 &= CR_MER_Reset;
 602:.//FWLIB/src/stm32f10x_flash.c ****   }    
 603:.//FWLIB/src/stm32f10x_flash.c ****   /* Return the Erase Status */
 604:.//FWLIB/src/stm32f10x_flash.c ****   return status;
 605:.//FWLIB/src/stm32f10x_flash.c **** }
 606:.//FWLIB/src/stm32f10x_flash.c **** #endif /* STM32F10X_XL */
 607:.//FWLIB/src/stm32f10x_flash.c **** 
 608:.//FWLIB/src/stm32f10x_flash.c **** /**
 609:.//FWLIB/src/stm32f10x_flash.c ****   * @brief  Erases the FLASH option bytes.
 610:.//FWLIB/src/stm32f10x_flash.c ****   * @note   This functions erases all option bytes except the Read protection (RDP). 
 611:.//FWLIB/src/stm32f10x_flash.c ****   * @note   This function can be used for all STM32F10x devices.
 612:.//FWLIB/src/stm32f10x_flash.c ****   * @param  None
 613:.//FWLIB/src/stm32f10x_flash.c ****   * @retval FLASH Status: The returned value can be: FLASH_ERROR_PG,
 614:.//FWLIB/src/stm32f10x_flash.c ****   *         FLASH_ERROR_WRP, FLASH_COMPLETE or FLASH_TIMEOUT.
 615:.//FWLIB/src/stm32f10x_flash.c ****   */
 616:.//FWLIB/src/stm32f10x_flash.c **** FLASH_Status FLASH_EraseOptionBytes(void)
 617:.//FWLIB/src/stm32f10x_flash.c **** {
 618:.//FWLIB/src/stm32f10x_flash.c ****   uint16_t rdptmp = RDP_Key;
 619:.//FWLIB/src/stm32f10x_flash.c **** 
 620:.//FWLIB/src/stm32f10x_flash.c ****   FLASH_Status status = FLASH_COMPLETE;
 621:.//FWLIB/src/stm32f10x_flash.c **** 
 622:.//FWLIB/src/stm32f10x_flash.c ****   /* Get the actual read protection Option Byte value */ 
 623:.//FWLIB/src/stm32f10x_flash.c ****   if(FLASH_GetReadOutProtectionStatus() != RESET)
 624:.//FWLIB/src/stm32f10x_flash.c ****   {
 625:.//FWLIB/src/stm32f10x_flash.c ****     rdptmp = 0x00;  
 626:.//FWLIB/src/stm32f10x_flash.c ****   }
 627:.//FWLIB/src/stm32f10x_flash.c **** 
 628:.//FWLIB/src/stm32f10x_flash.c ****   /* Wait for last operation to be completed */
 629:.//FWLIB/src/stm32f10x_flash.c ****   status = FLASH_WaitForLastOperation(EraseTimeout);
 630:.//FWLIB/src/stm32f10x_flash.c ****   if(status == FLASH_COMPLETE)
 631:.//FWLIB/src/stm32f10x_flash.c ****   {
 632:.//FWLIB/src/stm32f10x_flash.c ****     /* Authorize the small information block programming */
 633:.//FWLIB/src/stm32f10x_flash.c ****     FLASH->OPTKEYR = FLASH_KEY1;
 634:.//FWLIB/src/stm32f10x_flash.c ****     FLASH->OPTKEYR = FLASH_KEY2;
 635:.//FWLIB/src/stm32f10x_flash.c ****     
ARM GAS  /var/folders/v3/pl5z0pl12fx5br3g9j_y4ffr0000gn/T//cchvY1ju.s 			page 16


 636:.//FWLIB/src/stm32f10x_flash.c ****     /* if the previous operation is completed, proceed to erase the option bytes */
 637:.//FWLIB/src/stm32f10x_flash.c ****     FLASH->CR |= CR_OPTER_Set;
 638:.//FWLIB/src/stm32f10x_flash.c ****     FLASH->CR |= CR_STRT_Set;
 639:.//FWLIB/src/stm32f10x_flash.c ****     /* Wait for last operation to be completed */
 640:.//FWLIB/src/stm32f10x_flash.c ****     status = FLASH_WaitForLastOperation(EraseTimeout);
 641:.//FWLIB/src/stm32f10x_flash.c ****     
 642:.//FWLIB/src/stm32f10x_flash.c ****     if(status == FLASH_COMPLETE)
 643:.//FWLIB/src/stm32f10x_flash.c ****     {
 644:.//FWLIB/src/stm32f10x_flash.c ****       /* if the erase operation is completed, disable the OPTER Bit */
 645:.//FWLIB/src/stm32f10x_flash.c ****       FLASH->CR &= CR_OPTER_Reset;
 646:.//FWLIB/src/stm32f10x_flash.c ****        
 647:.//FWLIB/src/stm32f10x_flash.c ****       /* Enable the Option Bytes Programming operation */
 648:.//FWLIB/src/stm32f10x_flash.c ****       FLASH->CR |= CR_OPTPG_Set;
 649:.//FWLIB/src/stm32f10x_flash.c ****       /* Restore the last read protection Option Byte value */
 650:.//FWLIB/src/stm32f10x_flash.c ****       OB->RDP = (uint16_t)rdptmp; 
 651:.//FWLIB/src/stm32f10x_flash.c ****       /* Wait for last operation to be completed */
 652:.//FWLIB/src/stm32f10x_flash.c ****       status = FLASH_WaitForLastOperation(ProgramTimeout);
 653:.//FWLIB/src/stm32f10x_flash.c ****  
 654:.//FWLIB/src/stm32f10x_flash.c ****       if(status != FLASH_TIMEOUT)
 655:.//FWLIB/src/stm32f10x_flash.c ****       {
 656:.//FWLIB/src/stm32f10x_flash.c ****         /* if the program operation is completed, disable the OPTPG Bit */
 657:.//FWLIB/src/stm32f10x_flash.c ****         FLASH->CR &= CR_OPTPG_Reset;
 658:.//FWLIB/src/stm32f10x_flash.c ****       }
 659:.//FWLIB/src/stm32f10x_flash.c ****     }
 660:.//FWLIB/src/stm32f10x_flash.c ****     else
 661:.//FWLIB/src/stm32f10x_flash.c ****     {
 662:.//FWLIB/src/stm32f10x_flash.c ****       if (status != FLASH_TIMEOUT)
 663:.//FWLIB/src/stm32f10x_flash.c ****       {
 664:.//FWLIB/src/stm32f10x_flash.c ****         /* Disable the OPTPG Bit */
 665:.//FWLIB/src/stm32f10x_flash.c ****         FLASH->CR &= CR_OPTPG_Reset;
 666:.//FWLIB/src/stm32f10x_flash.c ****       }
 667:.//FWLIB/src/stm32f10x_flash.c ****     }  
 668:.//FWLIB/src/stm32f10x_flash.c ****   }
 669:.//FWLIB/src/stm32f10x_flash.c ****   /* Return the erase status */
 670:.//FWLIB/src/stm32f10x_flash.c ****   return status;
 671:.//FWLIB/src/stm32f10x_flash.c **** }
 672:.//FWLIB/src/stm32f10x_flash.c **** 
 673:.//FWLIB/src/stm32f10x_flash.c **** /**
 674:.//FWLIB/src/stm32f10x_flash.c ****   * @brief  Programs a word at a specified address.
 675:.//FWLIB/src/stm32f10x_flash.c ****   * @note   This function can be used for all STM32F10x devices.
 676:.//FWLIB/src/stm32f10x_flash.c ****   * @param  Address: specifies the address to be programmed.
 677:.//FWLIB/src/stm32f10x_flash.c ****   * @param  Data: specifies the data to be programmed.
 678:.//FWLIB/src/stm32f10x_flash.c ****   * @retval FLASH Status: The returned value can be: FLASH_ERROR_PG,
 679:.//FWLIB/src/stm32f10x_flash.c ****   *         FLASH_ERROR_WRP, FLASH_COMPLETE or FLASH_TIMEOUT. 
 680:.//FWLIB/src/stm32f10x_flash.c ****   */
 681:.//FWLIB/src/stm32f10x_flash.c **** FLASH_Status FLASH_ProgramWord(uint32_t Address, uint32_t Data)
 682:.//FWLIB/src/stm32f10x_flash.c **** {
 683:.//FWLIB/src/stm32f10x_flash.c ****   FLASH_Status status = FLASH_COMPLETE;
 684:.//FWLIB/src/stm32f10x_flash.c ****   __IO uint32_t tmp = 0;
 685:.//FWLIB/src/stm32f10x_flash.c **** 
 686:.//FWLIB/src/stm32f10x_flash.c ****   /* Check the parameters */
 687:.//FWLIB/src/stm32f10x_flash.c ****   assert_param(IS_FLASH_ADDRESS(Address));
 688:.//FWLIB/src/stm32f10x_flash.c **** 
 689:.//FWLIB/src/stm32f10x_flash.c **** #ifdef STM32F10X_XL
 690:.//FWLIB/src/stm32f10x_flash.c ****   if(Address < FLASH_BANK1_END_ADDRESS - 2)
 691:.//FWLIB/src/stm32f10x_flash.c ****   { 
 692:.//FWLIB/src/stm32f10x_flash.c ****     /* Wait for last operation to be completed */
ARM GAS  /var/folders/v3/pl5z0pl12fx5br3g9j_y4ffr0000gn/T//cchvY1ju.s 			page 17


 693:.//FWLIB/src/stm32f10x_flash.c ****     status = FLASH_WaitForLastBank1Operation(ProgramTimeout); 
 694:.//FWLIB/src/stm32f10x_flash.c ****     if(status == FLASH_COMPLETE)
 695:.//FWLIB/src/stm32f10x_flash.c ****     {
 696:.//FWLIB/src/stm32f10x_flash.c ****       /* if the previous operation is completed, proceed to program the new first 
 697:.//FWLIB/src/stm32f10x_flash.c ****         half word */
 698:.//FWLIB/src/stm32f10x_flash.c ****       FLASH->CR |= CR_PG_Set;
 699:.//FWLIB/src/stm32f10x_flash.c ****   
 700:.//FWLIB/src/stm32f10x_flash.c ****       *(__IO uint16_t*)Address = (uint16_t)Data;
 701:.//FWLIB/src/stm32f10x_flash.c ****       /* Wait for last operation to be completed */
 702:.//FWLIB/src/stm32f10x_flash.c ****       status = FLASH_WaitForLastOperation(ProgramTimeout);
 703:.//FWLIB/src/stm32f10x_flash.c ****  
 704:.//FWLIB/src/stm32f10x_flash.c ****       if(status == FLASH_COMPLETE)
 705:.//FWLIB/src/stm32f10x_flash.c ****       {
 706:.//FWLIB/src/stm32f10x_flash.c ****         /* if the previous operation is completed, proceed to program the new second 
 707:.//FWLIB/src/stm32f10x_flash.c ****         half word */
 708:.//FWLIB/src/stm32f10x_flash.c ****         tmp = Address + 2;
 709:.//FWLIB/src/stm32f10x_flash.c **** 
 710:.//FWLIB/src/stm32f10x_flash.c ****         *(__IO uint16_t*) tmp = Data >> 16;
 711:.//FWLIB/src/stm32f10x_flash.c ****     
 712:.//FWLIB/src/stm32f10x_flash.c ****         /* Wait for last operation to be completed */
 713:.//FWLIB/src/stm32f10x_flash.c ****         status = FLASH_WaitForLastOperation(ProgramTimeout);
 714:.//FWLIB/src/stm32f10x_flash.c ****         
 715:.//FWLIB/src/stm32f10x_flash.c ****         /* Disable the PG Bit */
 716:.//FWLIB/src/stm32f10x_flash.c ****         FLASH->CR &= CR_PG_Reset;
 717:.//FWLIB/src/stm32f10x_flash.c ****       }
 718:.//FWLIB/src/stm32f10x_flash.c ****       else
 719:.//FWLIB/src/stm32f10x_flash.c ****       {
 720:.//FWLIB/src/stm32f10x_flash.c ****         /* Disable the PG Bit */
 721:.//FWLIB/src/stm32f10x_flash.c ****         FLASH->CR &= CR_PG_Reset;
 722:.//FWLIB/src/stm32f10x_flash.c ****        }
 723:.//FWLIB/src/stm32f10x_flash.c ****     }
 724:.//FWLIB/src/stm32f10x_flash.c ****   }
 725:.//FWLIB/src/stm32f10x_flash.c ****   else if(Address == (FLASH_BANK1_END_ADDRESS - 1))
 726:.//FWLIB/src/stm32f10x_flash.c ****   {
 727:.//FWLIB/src/stm32f10x_flash.c ****     /* Wait for last operation to be completed */
 728:.//FWLIB/src/stm32f10x_flash.c ****     status = FLASH_WaitForLastBank1Operation(ProgramTimeout);
 729:.//FWLIB/src/stm32f10x_flash.c **** 
 730:.//FWLIB/src/stm32f10x_flash.c ****     if(status == FLASH_COMPLETE)
 731:.//FWLIB/src/stm32f10x_flash.c ****     {
 732:.//FWLIB/src/stm32f10x_flash.c ****       /* if the previous operation is completed, proceed to program the new first 
 733:.//FWLIB/src/stm32f10x_flash.c ****         half word */
 734:.//FWLIB/src/stm32f10x_flash.c ****       FLASH->CR |= CR_PG_Set;
 735:.//FWLIB/src/stm32f10x_flash.c ****   
 736:.//FWLIB/src/stm32f10x_flash.c ****       *(__IO uint16_t*)Address = (uint16_t)Data;
 737:.//FWLIB/src/stm32f10x_flash.c **** 
 738:.//FWLIB/src/stm32f10x_flash.c ****       /* Wait for last operation to be completed */
 739:.//FWLIB/src/stm32f10x_flash.c ****       status = FLASH_WaitForLastBank1Operation(ProgramTimeout);
 740:.//FWLIB/src/stm32f10x_flash.c ****       
 741:.//FWLIB/src/stm32f10x_flash.c **** 	  /* Disable the PG Bit */
 742:.//FWLIB/src/stm32f10x_flash.c ****       FLASH->CR &= CR_PG_Reset;
 743:.//FWLIB/src/stm32f10x_flash.c ****     }
 744:.//FWLIB/src/stm32f10x_flash.c ****     else
 745:.//FWLIB/src/stm32f10x_flash.c ****     {
 746:.//FWLIB/src/stm32f10x_flash.c ****       /* Disable the PG Bit */
 747:.//FWLIB/src/stm32f10x_flash.c ****       FLASH->CR &= CR_PG_Reset;
 748:.//FWLIB/src/stm32f10x_flash.c ****     }
 749:.//FWLIB/src/stm32f10x_flash.c **** 
ARM GAS  /var/folders/v3/pl5z0pl12fx5br3g9j_y4ffr0000gn/T//cchvY1ju.s 			page 18


 750:.//FWLIB/src/stm32f10x_flash.c ****     /* Wait for last operation to be completed */
 751:.//FWLIB/src/stm32f10x_flash.c ****     status = FLASH_WaitForLastBank2Operation(ProgramTimeout);
 752:.//FWLIB/src/stm32f10x_flash.c **** 
 753:.//FWLIB/src/stm32f10x_flash.c ****     if(status == FLASH_COMPLETE)
 754:.//FWLIB/src/stm32f10x_flash.c ****     {
 755:.//FWLIB/src/stm32f10x_flash.c ****       /* if the previous operation is completed, proceed to program the new second 
 756:.//FWLIB/src/stm32f10x_flash.c ****       half word */
 757:.//FWLIB/src/stm32f10x_flash.c ****       FLASH->CR2 |= CR_PG_Set;
 758:.//FWLIB/src/stm32f10x_flash.c ****       tmp = Address + 2;
 759:.//FWLIB/src/stm32f10x_flash.c **** 
 760:.//FWLIB/src/stm32f10x_flash.c ****       *(__IO uint16_t*) tmp = Data >> 16;
 761:.//FWLIB/src/stm32f10x_flash.c ****     
 762:.//FWLIB/src/stm32f10x_flash.c ****       /* Wait for last operation to be completed */
 763:.//FWLIB/src/stm32f10x_flash.c ****       status = FLASH_WaitForLastBank2Operation(ProgramTimeout);
 764:.//FWLIB/src/stm32f10x_flash.c ****         
 765:.//FWLIB/src/stm32f10x_flash.c ****       /* Disable the PG Bit */
 766:.//FWLIB/src/stm32f10x_flash.c ****       FLASH->CR2 &= CR_PG_Reset;
 767:.//FWLIB/src/stm32f10x_flash.c ****     }
 768:.//FWLIB/src/stm32f10x_flash.c ****     else
 769:.//FWLIB/src/stm32f10x_flash.c ****     {
 770:.//FWLIB/src/stm32f10x_flash.c ****       /* Disable the PG Bit */
 771:.//FWLIB/src/stm32f10x_flash.c ****       FLASH->CR2 &= CR_PG_Reset;
 772:.//FWLIB/src/stm32f10x_flash.c ****     }
 773:.//FWLIB/src/stm32f10x_flash.c ****   }
 774:.//FWLIB/src/stm32f10x_flash.c ****   else
 775:.//FWLIB/src/stm32f10x_flash.c ****   {
 776:.//FWLIB/src/stm32f10x_flash.c ****     /* Wait for last operation to be completed */
 777:.//FWLIB/src/stm32f10x_flash.c ****     status = FLASH_WaitForLastBank2Operation(ProgramTimeout);
 778:.//FWLIB/src/stm32f10x_flash.c **** 
 779:.//FWLIB/src/stm32f10x_flash.c ****     if(status == FLASH_COMPLETE)
 780:.//FWLIB/src/stm32f10x_flash.c ****     {
 781:.//FWLIB/src/stm32f10x_flash.c ****       /* if the previous operation is completed, proceed to program the new first 
 782:.//FWLIB/src/stm32f10x_flash.c ****         half word */
 783:.//FWLIB/src/stm32f10x_flash.c ****       FLASH->CR2 |= CR_PG_Set;
 784:.//FWLIB/src/stm32f10x_flash.c ****   
 785:.//FWLIB/src/stm32f10x_flash.c ****       *(__IO uint16_t*)Address = (uint16_t)Data;
 786:.//FWLIB/src/stm32f10x_flash.c ****       /* Wait for last operation to be completed */
 787:.//FWLIB/src/stm32f10x_flash.c ****       status = FLASH_WaitForLastBank2Operation(ProgramTimeout);
 788:.//FWLIB/src/stm32f10x_flash.c ****  
 789:.//FWLIB/src/stm32f10x_flash.c ****       if(status == FLASH_COMPLETE)
 790:.//FWLIB/src/stm32f10x_flash.c ****       {
 791:.//FWLIB/src/stm32f10x_flash.c ****         /* if the previous operation is completed, proceed to program the new second 
 792:.//FWLIB/src/stm32f10x_flash.c ****         half word */
 793:.//FWLIB/src/stm32f10x_flash.c ****         tmp = Address + 2;
 794:.//FWLIB/src/stm32f10x_flash.c **** 
 795:.//FWLIB/src/stm32f10x_flash.c ****         *(__IO uint16_t*) tmp = Data >> 16;
 796:.//FWLIB/src/stm32f10x_flash.c ****     
 797:.//FWLIB/src/stm32f10x_flash.c ****         /* Wait for last operation to be completed */
 798:.//FWLIB/src/stm32f10x_flash.c ****         status = FLASH_WaitForLastBank2Operation(ProgramTimeout);
 799:.//FWLIB/src/stm32f10x_flash.c ****         
 800:.//FWLIB/src/stm32f10x_flash.c ****         /* Disable the PG Bit */
 801:.//FWLIB/src/stm32f10x_flash.c ****         FLASH->CR2 &= CR_PG_Reset;
 802:.//FWLIB/src/stm32f10x_flash.c ****       }
 803:.//FWLIB/src/stm32f10x_flash.c ****       else
 804:.//FWLIB/src/stm32f10x_flash.c ****       {
 805:.//FWLIB/src/stm32f10x_flash.c ****         /* Disable the PG Bit */
 806:.//FWLIB/src/stm32f10x_flash.c ****         FLASH->CR2 &= CR_PG_Reset;
ARM GAS  /var/folders/v3/pl5z0pl12fx5br3g9j_y4ffr0000gn/T//cchvY1ju.s 			page 19


 807:.//FWLIB/src/stm32f10x_flash.c ****       }
 808:.//FWLIB/src/stm32f10x_flash.c ****     }
 809:.//FWLIB/src/stm32f10x_flash.c ****   }
 810:.//FWLIB/src/stm32f10x_flash.c **** #else
 811:.//FWLIB/src/stm32f10x_flash.c ****   /* Wait for last operation to be completed */
 812:.//FWLIB/src/stm32f10x_flash.c ****   status = FLASH_WaitForLastOperation(ProgramTimeout);
 813:.//FWLIB/src/stm32f10x_flash.c ****   
 814:.//FWLIB/src/stm32f10x_flash.c ****   if(status == FLASH_COMPLETE)
 815:.//FWLIB/src/stm32f10x_flash.c ****   {
 816:.//FWLIB/src/stm32f10x_flash.c ****     /* if the previous operation is completed, proceed to program the new first 
 817:.//FWLIB/src/stm32f10x_flash.c ****     half word */
 818:.//FWLIB/src/stm32f10x_flash.c ****     FLASH->CR |= CR_PG_Set;
 819:.//FWLIB/src/stm32f10x_flash.c ****   
 820:.//FWLIB/src/stm32f10x_flash.c ****     *(__IO uint16_t*)Address = (uint16_t)Data;
 821:.//FWLIB/src/stm32f10x_flash.c ****     /* Wait for last operation to be completed */
 822:.//FWLIB/src/stm32f10x_flash.c ****     status = FLASH_WaitForLastOperation(ProgramTimeout);
 823:.//FWLIB/src/stm32f10x_flash.c ****  
 824:.//FWLIB/src/stm32f10x_flash.c ****     if(status == FLASH_COMPLETE)
 825:.//FWLIB/src/stm32f10x_flash.c ****     {
 826:.//FWLIB/src/stm32f10x_flash.c ****       /* if the previous operation is completed, proceed to program the new second 
 827:.//FWLIB/src/stm32f10x_flash.c ****       half word */
 828:.//FWLIB/src/stm32f10x_flash.c ****       tmp = Address + 2;
 829:.//FWLIB/src/stm32f10x_flash.c **** 
 830:.//FWLIB/src/stm32f10x_flash.c ****       *(__IO uint16_t*) tmp = Data >> 16;
 831:.//FWLIB/src/stm32f10x_flash.c ****     
 832:.//FWLIB/src/stm32f10x_flash.c ****       /* Wait for last operation to be completed */
 833:.//FWLIB/src/stm32f10x_flash.c ****       status = FLASH_WaitForLastOperation(ProgramTimeout);
 834:.//FWLIB/src/stm32f10x_flash.c ****         
 835:.//FWLIB/src/stm32f10x_flash.c ****       /* Disable the PG Bit */
 836:.//FWLIB/src/stm32f10x_flash.c ****       FLASH->CR &= CR_PG_Reset;
 837:.//FWLIB/src/stm32f10x_flash.c ****     }
 838:.//FWLIB/src/stm32f10x_flash.c ****     else
 839:.//FWLIB/src/stm32f10x_flash.c ****     {
 840:.//FWLIB/src/stm32f10x_flash.c ****       /* Disable the PG Bit */
 841:.//FWLIB/src/stm32f10x_flash.c ****       FLASH->CR &= CR_PG_Reset;
 842:.//FWLIB/src/stm32f10x_flash.c ****     }
 843:.//FWLIB/src/stm32f10x_flash.c ****   }         
 844:.//FWLIB/src/stm32f10x_flash.c **** #endif /* STM32F10X_XL */
 845:.//FWLIB/src/stm32f10x_flash.c ****    
 846:.//FWLIB/src/stm32f10x_flash.c ****   /* Return the Program Status */
 847:.//FWLIB/src/stm32f10x_flash.c ****   return status;
 848:.//FWLIB/src/stm32f10x_flash.c **** }
 849:.//FWLIB/src/stm32f10x_flash.c **** 
 850:.//FWLIB/src/stm32f10x_flash.c **** /**
 851:.//FWLIB/src/stm32f10x_flash.c ****   * @brief  Programs a half word at a specified address.
 852:.//FWLIB/src/stm32f10x_flash.c ****   * @note   This function can be used for all STM32F10x devices.
 853:.//FWLIB/src/stm32f10x_flash.c ****   * @param  Address: specifies the address to be programmed.
 854:.//FWLIB/src/stm32f10x_flash.c ****   * @param  Data: specifies the data to be programmed.
 855:.//FWLIB/src/stm32f10x_flash.c ****   * @retval FLASH Status: The returned value can be: FLASH_ERROR_PG,
 856:.//FWLIB/src/stm32f10x_flash.c ****   *         FLASH_ERROR_WRP, FLASH_COMPLETE or FLASH_TIMEOUT. 
 857:.//FWLIB/src/stm32f10x_flash.c ****   */
 858:.//FWLIB/src/stm32f10x_flash.c **** FLASH_Status FLASH_ProgramHalfWord(uint32_t Address, uint16_t Data)
 859:.//FWLIB/src/stm32f10x_flash.c **** {
 860:.//FWLIB/src/stm32f10x_flash.c ****   FLASH_Status status = FLASH_COMPLETE;
 861:.//FWLIB/src/stm32f10x_flash.c ****   /* Check the parameters */
 862:.//FWLIB/src/stm32f10x_flash.c ****   assert_param(IS_FLASH_ADDRESS(Address));
 863:.//FWLIB/src/stm32f10x_flash.c **** 
ARM GAS  /var/folders/v3/pl5z0pl12fx5br3g9j_y4ffr0000gn/T//cchvY1ju.s 			page 20


 864:.//FWLIB/src/stm32f10x_flash.c **** #ifdef STM32F10X_XL
 865:.//FWLIB/src/stm32f10x_flash.c ****   /* Wait for last operation to be completed */
 866:.//FWLIB/src/stm32f10x_flash.c ****   status = FLASH_WaitForLastOperation(ProgramTimeout);
 867:.//FWLIB/src/stm32f10x_flash.c ****   
 868:.//FWLIB/src/stm32f10x_flash.c ****   if(Address < FLASH_BANK1_END_ADDRESS)
 869:.//FWLIB/src/stm32f10x_flash.c ****   {
 870:.//FWLIB/src/stm32f10x_flash.c ****     if(status == FLASH_COMPLETE)
 871:.//FWLIB/src/stm32f10x_flash.c ****     {
 872:.//FWLIB/src/stm32f10x_flash.c ****       /* if the previous operation is completed, proceed to program the new data */
 873:.//FWLIB/src/stm32f10x_flash.c ****       FLASH->CR |= CR_PG_Set;
 874:.//FWLIB/src/stm32f10x_flash.c ****   
 875:.//FWLIB/src/stm32f10x_flash.c ****       *(__IO uint16_t*)Address = Data;
 876:.//FWLIB/src/stm32f10x_flash.c ****       /* Wait for last operation to be completed */
 877:.//FWLIB/src/stm32f10x_flash.c ****       status = FLASH_WaitForLastBank1Operation(ProgramTimeout);
 878:.//FWLIB/src/stm32f10x_flash.c **** 
 879:.//FWLIB/src/stm32f10x_flash.c ****       /* Disable the PG Bit */
 880:.//FWLIB/src/stm32f10x_flash.c ****       FLASH->CR &= CR_PG_Reset;
 881:.//FWLIB/src/stm32f10x_flash.c ****     }
 882:.//FWLIB/src/stm32f10x_flash.c ****   }
 883:.//FWLIB/src/stm32f10x_flash.c ****   else
 884:.//FWLIB/src/stm32f10x_flash.c ****   {
 885:.//FWLIB/src/stm32f10x_flash.c ****     if(status == FLASH_COMPLETE)
 886:.//FWLIB/src/stm32f10x_flash.c ****     {
 887:.//FWLIB/src/stm32f10x_flash.c ****       /* if the previous operation is completed, proceed to program the new data */
 888:.//FWLIB/src/stm32f10x_flash.c ****       FLASH->CR2 |= CR_PG_Set;
 889:.//FWLIB/src/stm32f10x_flash.c ****   
 890:.//FWLIB/src/stm32f10x_flash.c ****       *(__IO uint16_t*)Address = Data;
 891:.//FWLIB/src/stm32f10x_flash.c ****       /* Wait for last operation to be completed */
 892:.//FWLIB/src/stm32f10x_flash.c ****       status = FLASH_WaitForLastBank2Operation(ProgramTimeout);
 893:.//FWLIB/src/stm32f10x_flash.c **** 
 894:.//FWLIB/src/stm32f10x_flash.c ****       /* Disable the PG Bit */
 895:.//FWLIB/src/stm32f10x_flash.c ****       FLASH->CR2 &= CR_PG_Reset;
 896:.//FWLIB/src/stm32f10x_flash.c ****     }
 897:.//FWLIB/src/stm32f10x_flash.c ****   }
 898:.//FWLIB/src/stm32f10x_flash.c **** #else
 899:.//FWLIB/src/stm32f10x_flash.c ****   /* Wait for last operation to be completed */
 900:.//FWLIB/src/stm32f10x_flash.c ****   status = FLASH_WaitForLastOperation(ProgramTimeout);
 901:.//FWLIB/src/stm32f10x_flash.c ****   
 902:.//FWLIB/src/stm32f10x_flash.c ****   if(status == FLASH_COMPLETE)
 903:.//FWLIB/src/stm32f10x_flash.c ****   {
 904:.//FWLIB/src/stm32f10x_flash.c ****     /* if the previous operation is completed, proceed to program the new data */
 905:.//FWLIB/src/stm32f10x_flash.c ****     FLASH->CR |= CR_PG_Set;
 906:.//FWLIB/src/stm32f10x_flash.c ****   
 907:.//FWLIB/src/stm32f10x_flash.c ****     *(__IO uint16_t*)Address = Data;
 908:.//FWLIB/src/stm32f10x_flash.c ****     /* Wait for last operation to be completed */
 909:.//FWLIB/src/stm32f10x_flash.c ****     status = FLASH_WaitForLastOperation(ProgramTimeout);
 910:.//FWLIB/src/stm32f10x_flash.c ****     
 911:.//FWLIB/src/stm32f10x_flash.c ****     /* Disable the PG Bit */
 912:.//FWLIB/src/stm32f10x_flash.c ****     FLASH->CR &= CR_PG_Reset;
 913:.//FWLIB/src/stm32f10x_flash.c ****   } 
 914:.//FWLIB/src/stm32f10x_flash.c **** #endif  /* STM32F10X_XL */
 915:.//FWLIB/src/stm32f10x_flash.c ****   
 916:.//FWLIB/src/stm32f10x_flash.c ****   /* Return the Program Status */
 917:.//FWLIB/src/stm32f10x_flash.c ****   return status;
 918:.//FWLIB/src/stm32f10x_flash.c **** }
 919:.//FWLIB/src/stm32f10x_flash.c **** 
 920:.//FWLIB/src/stm32f10x_flash.c **** /**
ARM GAS  /var/folders/v3/pl5z0pl12fx5br3g9j_y4ffr0000gn/T//cchvY1ju.s 			page 21


 921:.//FWLIB/src/stm32f10x_flash.c ****   * @brief  Programs a half word at a specified Option Byte Data address.
 922:.//FWLIB/src/stm32f10x_flash.c ****   * @note   This function can be used for all STM32F10x devices.
 923:.//FWLIB/src/stm32f10x_flash.c ****   * @param  Address: specifies the address to be programmed.
 924:.//FWLIB/src/stm32f10x_flash.c ****   *   This parameter can be 0x1FFFF804 or 0x1FFFF806. 
 925:.//FWLIB/src/stm32f10x_flash.c ****   * @param  Data: specifies the data to be programmed.
 926:.//FWLIB/src/stm32f10x_flash.c ****   * @retval FLASH Status: The returned value can be: FLASH_ERROR_PG,
 927:.//FWLIB/src/stm32f10x_flash.c ****   *         FLASH_ERROR_WRP, FLASH_COMPLETE or FLASH_TIMEOUT. 
 928:.//FWLIB/src/stm32f10x_flash.c ****   */
 929:.//FWLIB/src/stm32f10x_flash.c **** FLASH_Status FLASH_ProgramOptionByteData(uint32_t Address, uint8_t Data)
 930:.//FWLIB/src/stm32f10x_flash.c **** {
 931:.//FWLIB/src/stm32f10x_flash.c ****   FLASH_Status status = FLASH_COMPLETE;
 932:.//FWLIB/src/stm32f10x_flash.c ****   /* Check the parameters */
 933:.//FWLIB/src/stm32f10x_flash.c ****   assert_param(IS_OB_DATA_ADDRESS(Address));
 934:.//FWLIB/src/stm32f10x_flash.c ****   status = FLASH_WaitForLastOperation(ProgramTimeout);
 935:.//FWLIB/src/stm32f10x_flash.c **** 
 936:.//FWLIB/src/stm32f10x_flash.c ****   if(status == FLASH_COMPLETE)
 937:.//FWLIB/src/stm32f10x_flash.c ****   {
 938:.//FWLIB/src/stm32f10x_flash.c ****     /* Authorize the small information block programming */
 939:.//FWLIB/src/stm32f10x_flash.c ****     FLASH->OPTKEYR = FLASH_KEY1;
 940:.//FWLIB/src/stm32f10x_flash.c ****     FLASH->OPTKEYR = FLASH_KEY2;
 941:.//FWLIB/src/stm32f10x_flash.c ****     /* Enables the Option Bytes Programming operation */
 942:.//FWLIB/src/stm32f10x_flash.c ****     FLASH->CR |= CR_OPTPG_Set; 
 943:.//FWLIB/src/stm32f10x_flash.c ****     *(__IO uint16_t*)Address = Data;
 944:.//FWLIB/src/stm32f10x_flash.c ****     
 945:.//FWLIB/src/stm32f10x_flash.c ****     /* Wait for last operation to be completed */
 946:.//FWLIB/src/stm32f10x_flash.c ****     status = FLASH_WaitForLastOperation(ProgramTimeout);
 947:.//FWLIB/src/stm32f10x_flash.c ****     if(status != FLASH_TIMEOUT)
 948:.//FWLIB/src/stm32f10x_flash.c ****     {
 949:.//FWLIB/src/stm32f10x_flash.c ****       /* if the program operation is completed, disable the OPTPG Bit */
 950:.//FWLIB/src/stm32f10x_flash.c ****       FLASH->CR &= CR_OPTPG_Reset;
 951:.//FWLIB/src/stm32f10x_flash.c ****     }
 952:.//FWLIB/src/stm32f10x_flash.c ****   }
 953:.//FWLIB/src/stm32f10x_flash.c ****   /* Return the Option Byte Data Program Status */
 954:.//FWLIB/src/stm32f10x_flash.c ****   return status;
 955:.//FWLIB/src/stm32f10x_flash.c **** }
 956:.//FWLIB/src/stm32f10x_flash.c **** 
 957:.//FWLIB/src/stm32f10x_flash.c **** /**
 958:.//FWLIB/src/stm32f10x_flash.c ****   * @brief  Write protects the desired pages
 959:.//FWLIB/src/stm32f10x_flash.c ****   * @note   This function can be used for all STM32F10x devices.
 960:.//FWLIB/src/stm32f10x_flash.c ****   * @param  FLASH_Pages: specifies the address of the pages to be write protected.
 961:.//FWLIB/src/stm32f10x_flash.c ****   *   This parameter can be:
 962:.//FWLIB/src/stm32f10x_flash.c ****   *     @arg For @b STM32_Low-density_devices: value between FLASH_WRProt_Pages0to3 and FLASH_WRPro
 963:.//FWLIB/src/stm32f10x_flash.c ****   *     @arg For @b STM32_Medium-density_devices: value between FLASH_WRProt_Pages0to3
 964:.//FWLIB/src/stm32f10x_flash.c ****   *       and FLASH_WRProt_Pages124to127
 965:.//FWLIB/src/stm32f10x_flash.c ****   *     @arg For @b STM32_High-density_devices: value between FLASH_WRProt_Pages0to1 and
 966:.//FWLIB/src/stm32f10x_flash.c ****   *       FLASH_WRProt_Pages60to61 or FLASH_WRProt_Pages62to255
 967:.//FWLIB/src/stm32f10x_flash.c ****   *     @arg For @b STM32_Connectivity_line_devices: value between FLASH_WRProt_Pages0to1 and
 968:.//FWLIB/src/stm32f10x_flash.c ****   *       FLASH_WRProt_Pages60to61 or FLASH_WRProt_Pages62to127    
 969:.//FWLIB/src/stm32f10x_flash.c ****   *     @arg For @b STM32_XL-density_devices: value between FLASH_WRProt_Pages0to1 and
 970:.//FWLIB/src/stm32f10x_flash.c ****   *       FLASH_WRProt_Pages60to61 or FLASH_WRProt_Pages62to511
 971:.//FWLIB/src/stm32f10x_flash.c ****   *     @arg FLASH_WRProt_AllPages
 972:.//FWLIB/src/stm32f10x_flash.c ****   * @retval FLASH Status: The returned value can be: FLASH_ERROR_PG,
 973:.//FWLIB/src/stm32f10x_flash.c ****   *         FLASH_ERROR_WRP, FLASH_COMPLETE or FLASH_TIMEOUT.
 974:.//FWLIB/src/stm32f10x_flash.c ****   */
 975:.//FWLIB/src/stm32f10x_flash.c **** FLASH_Status FLASH_EnableWriteProtection(uint32_t FLASH_Pages)
 976:.//FWLIB/src/stm32f10x_flash.c **** {
 977:.//FWLIB/src/stm32f10x_flash.c ****   uint16_t WRP0_Data = 0xFFFF, WRP1_Data = 0xFFFF, WRP2_Data = 0xFFFF, WRP3_Data = 0xFFFF;
ARM GAS  /var/folders/v3/pl5z0pl12fx5br3g9j_y4ffr0000gn/T//cchvY1ju.s 			page 22


 978:.//FWLIB/src/stm32f10x_flash.c ****   
 979:.//FWLIB/src/stm32f10x_flash.c ****   FLASH_Status status = FLASH_COMPLETE;
 980:.//FWLIB/src/stm32f10x_flash.c ****   
 981:.//FWLIB/src/stm32f10x_flash.c ****   /* Check the parameters */
 982:.//FWLIB/src/stm32f10x_flash.c ****   assert_param(IS_FLASH_WRPROT_PAGE(FLASH_Pages));
 983:.//FWLIB/src/stm32f10x_flash.c ****   
 984:.//FWLIB/src/stm32f10x_flash.c ****   FLASH_Pages = (uint32_t)(~FLASH_Pages);
 985:.//FWLIB/src/stm32f10x_flash.c ****   WRP0_Data = (uint16_t)(FLASH_Pages & WRP0_Mask);
 986:.//FWLIB/src/stm32f10x_flash.c ****   WRP1_Data = (uint16_t)((FLASH_Pages & WRP1_Mask) >> 8);
 987:.//FWLIB/src/stm32f10x_flash.c ****   WRP2_Data = (uint16_t)((FLASH_Pages & WRP2_Mask) >> 16);
 988:.//FWLIB/src/stm32f10x_flash.c ****   WRP3_Data = (uint16_t)((FLASH_Pages & WRP3_Mask) >> 24);
 989:.//FWLIB/src/stm32f10x_flash.c ****   
 990:.//FWLIB/src/stm32f10x_flash.c ****   /* Wait for last operation to be completed */
 991:.//FWLIB/src/stm32f10x_flash.c ****   status = FLASH_WaitForLastOperation(ProgramTimeout);
 992:.//FWLIB/src/stm32f10x_flash.c ****   
 993:.//FWLIB/src/stm32f10x_flash.c ****   if(status == FLASH_COMPLETE)
 994:.//FWLIB/src/stm32f10x_flash.c ****   {
 995:.//FWLIB/src/stm32f10x_flash.c ****     /* Authorizes the small information block programming */
 996:.//FWLIB/src/stm32f10x_flash.c ****     FLASH->OPTKEYR = FLASH_KEY1;
 997:.//FWLIB/src/stm32f10x_flash.c ****     FLASH->OPTKEYR = FLASH_KEY2;
 998:.//FWLIB/src/stm32f10x_flash.c ****     FLASH->CR |= CR_OPTPG_Set;
 999:.//FWLIB/src/stm32f10x_flash.c ****     if(WRP0_Data != 0xFF)
1000:.//FWLIB/src/stm32f10x_flash.c ****     {
1001:.//FWLIB/src/stm32f10x_flash.c ****       OB->WRP0 = WRP0_Data;
1002:.//FWLIB/src/stm32f10x_flash.c ****       
1003:.//FWLIB/src/stm32f10x_flash.c ****       /* Wait for last operation to be completed */
1004:.//FWLIB/src/stm32f10x_flash.c ****       status = FLASH_WaitForLastOperation(ProgramTimeout);
1005:.//FWLIB/src/stm32f10x_flash.c ****     }
1006:.//FWLIB/src/stm32f10x_flash.c ****     if((status == FLASH_COMPLETE) && (WRP1_Data != 0xFF))
1007:.//FWLIB/src/stm32f10x_flash.c ****     {
1008:.//FWLIB/src/stm32f10x_flash.c ****       OB->WRP1 = WRP1_Data;
1009:.//FWLIB/src/stm32f10x_flash.c ****       
1010:.//FWLIB/src/stm32f10x_flash.c ****       /* Wait for last operation to be completed */
1011:.//FWLIB/src/stm32f10x_flash.c ****       status = FLASH_WaitForLastOperation(ProgramTimeout);
1012:.//FWLIB/src/stm32f10x_flash.c ****     }
1013:.//FWLIB/src/stm32f10x_flash.c ****     if((status == FLASH_COMPLETE) && (WRP2_Data != 0xFF))
1014:.//FWLIB/src/stm32f10x_flash.c ****     {
1015:.//FWLIB/src/stm32f10x_flash.c ****       OB->WRP2 = WRP2_Data;
1016:.//FWLIB/src/stm32f10x_flash.c ****       
1017:.//FWLIB/src/stm32f10x_flash.c ****       /* Wait for last operation to be completed */
1018:.//FWLIB/src/stm32f10x_flash.c ****       status = FLASH_WaitForLastOperation(ProgramTimeout);
1019:.//FWLIB/src/stm32f10x_flash.c ****     }
1020:.//FWLIB/src/stm32f10x_flash.c ****     
1021:.//FWLIB/src/stm32f10x_flash.c ****     if((status == FLASH_COMPLETE)&& (WRP3_Data != 0xFF))
1022:.//FWLIB/src/stm32f10x_flash.c ****     {
1023:.//FWLIB/src/stm32f10x_flash.c ****       OB->WRP3 = WRP3_Data;
1024:.//FWLIB/src/stm32f10x_flash.c ****      
1025:.//FWLIB/src/stm32f10x_flash.c ****       /* Wait for last operation to be completed */
1026:.//FWLIB/src/stm32f10x_flash.c ****       status = FLASH_WaitForLastOperation(ProgramTimeout);
1027:.//FWLIB/src/stm32f10x_flash.c ****     }
1028:.//FWLIB/src/stm32f10x_flash.c ****           
1029:.//FWLIB/src/stm32f10x_flash.c ****     if(status != FLASH_TIMEOUT)
1030:.//FWLIB/src/stm32f10x_flash.c ****     {
1031:.//FWLIB/src/stm32f10x_flash.c ****       /* if the program operation is completed, disable the OPTPG Bit */
1032:.//FWLIB/src/stm32f10x_flash.c ****       FLASH->CR &= CR_OPTPG_Reset;
1033:.//FWLIB/src/stm32f10x_flash.c ****     }
1034:.//FWLIB/src/stm32f10x_flash.c ****   } 
ARM GAS  /var/folders/v3/pl5z0pl12fx5br3g9j_y4ffr0000gn/T//cchvY1ju.s 			page 23


1035:.//FWLIB/src/stm32f10x_flash.c ****   /* Return the write protection operation Status */
1036:.//FWLIB/src/stm32f10x_flash.c ****   return status;       
1037:.//FWLIB/src/stm32f10x_flash.c **** }
1038:.//FWLIB/src/stm32f10x_flash.c **** 
1039:.//FWLIB/src/stm32f10x_flash.c **** /**
1040:.//FWLIB/src/stm32f10x_flash.c ****   * @brief  Enables or disables the read out protection.
1041:.//FWLIB/src/stm32f10x_flash.c ****   * @note   If the user has already programmed the other option bytes before calling 
1042:.//FWLIB/src/stm32f10x_flash.c ****   *   this function, he must re-program them since this function erases all option bytes.
1043:.//FWLIB/src/stm32f10x_flash.c ****   * @note   This function can be used for all STM32F10x devices.
1044:.//FWLIB/src/stm32f10x_flash.c ****   * @param  Newstate: new state of the ReadOut Protection.
1045:.//FWLIB/src/stm32f10x_flash.c ****   *   This parameter can be: ENABLE or DISABLE.
1046:.//FWLIB/src/stm32f10x_flash.c ****   * @retval FLASH Status: The returned value can be: FLASH_ERROR_PG,
1047:.//FWLIB/src/stm32f10x_flash.c ****   *         FLASH_ERROR_WRP, FLASH_COMPLETE or FLASH_TIMEOUT.
1048:.//FWLIB/src/stm32f10x_flash.c ****   */
1049:.//FWLIB/src/stm32f10x_flash.c **** FLASH_Status FLASH_ReadOutProtection(FunctionalState NewState)
1050:.//FWLIB/src/stm32f10x_flash.c **** {
1051:.//FWLIB/src/stm32f10x_flash.c ****   FLASH_Status status = FLASH_COMPLETE;
1052:.//FWLIB/src/stm32f10x_flash.c ****   /* Check the parameters */
1053:.//FWLIB/src/stm32f10x_flash.c ****   assert_param(IS_FUNCTIONAL_STATE(NewState));
1054:.//FWLIB/src/stm32f10x_flash.c ****   status = FLASH_WaitForLastOperation(EraseTimeout);
1055:.//FWLIB/src/stm32f10x_flash.c ****   if(status == FLASH_COMPLETE)
1056:.//FWLIB/src/stm32f10x_flash.c ****   {
1057:.//FWLIB/src/stm32f10x_flash.c ****     /* Authorizes the small information block programming */
1058:.//FWLIB/src/stm32f10x_flash.c ****     FLASH->OPTKEYR = FLASH_KEY1;
1059:.//FWLIB/src/stm32f10x_flash.c ****     FLASH->OPTKEYR = FLASH_KEY2;
1060:.//FWLIB/src/stm32f10x_flash.c ****     FLASH->CR |= CR_OPTER_Set;
1061:.//FWLIB/src/stm32f10x_flash.c ****     FLASH->CR |= CR_STRT_Set;
1062:.//FWLIB/src/stm32f10x_flash.c ****     /* Wait for last operation to be completed */
1063:.//FWLIB/src/stm32f10x_flash.c ****     status = FLASH_WaitForLastOperation(EraseTimeout);
1064:.//FWLIB/src/stm32f10x_flash.c ****     if(status == FLASH_COMPLETE)
1065:.//FWLIB/src/stm32f10x_flash.c ****     {
1066:.//FWLIB/src/stm32f10x_flash.c ****       /* if the erase operation is completed, disable the OPTER Bit */
1067:.//FWLIB/src/stm32f10x_flash.c ****       FLASH->CR &= CR_OPTER_Reset;
1068:.//FWLIB/src/stm32f10x_flash.c ****       /* Enable the Option Bytes Programming operation */
1069:.//FWLIB/src/stm32f10x_flash.c ****       FLASH->CR |= CR_OPTPG_Set; 
1070:.//FWLIB/src/stm32f10x_flash.c ****       if(NewState != DISABLE)
1071:.//FWLIB/src/stm32f10x_flash.c ****       {
1072:.//FWLIB/src/stm32f10x_flash.c ****         OB->RDP = 0x00;
1073:.//FWLIB/src/stm32f10x_flash.c ****       }
1074:.//FWLIB/src/stm32f10x_flash.c ****       else
1075:.//FWLIB/src/stm32f10x_flash.c ****       {
1076:.//FWLIB/src/stm32f10x_flash.c ****         OB->RDP = RDP_Key;  
1077:.//FWLIB/src/stm32f10x_flash.c ****       }
1078:.//FWLIB/src/stm32f10x_flash.c ****       /* Wait for last operation to be completed */
1079:.//FWLIB/src/stm32f10x_flash.c ****       status = FLASH_WaitForLastOperation(EraseTimeout); 
1080:.//FWLIB/src/stm32f10x_flash.c ****     
1081:.//FWLIB/src/stm32f10x_flash.c ****       if(status != FLASH_TIMEOUT)
1082:.//FWLIB/src/stm32f10x_flash.c ****       {
1083:.//FWLIB/src/stm32f10x_flash.c ****         /* if the program operation is completed, disable the OPTPG Bit */
1084:.//FWLIB/src/stm32f10x_flash.c ****         FLASH->CR &= CR_OPTPG_Reset;
1085:.//FWLIB/src/stm32f10x_flash.c ****       }
1086:.//FWLIB/src/stm32f10x_flash.c ****     }
1087:.//FWLIB/src/stm32f10x_flash.c ****     else 
1088:.//FWLIB/src/stm32f10x_flash.c ****     {
1089:.//FWLIB/src/stm32f10x_flash.c ****       if(status != FLASH_TIMEOUT)
1090:.//FWLIB/src/stm32f10x_flash.c ****       {
1091:.//FWLIB/src/stm32f10x_flash.c ****         /* Disable the OPTER Bit */
ARM GAS  /var/folders/v3/pl5z0pl12fx5br3g9j_y4ffr0000gn/T//cchvY1ju.s 			page 24


1092:.//FWLIB/src/stm32f10x_flash.c ****         FLASH->CR &= CR_OPTER_Reset;
1093:.//FWLIB/src/stm32f10x_flash.c ****       }
1094:.//FWLIB/src/stm32f10x_flash.c ****     }
1095:.//FWLIB/src/stm32f10x_flash.c ****   }
1096:.//FWLIB/src/stm32f10x_flash.c ****   /* Return the protection operation Status */
1097:.//FWLIB/src/stm32f10x_flash.c ****   return status;       
1098:.//FWLIB/src/stm32f10x_flash.c **** }
1099:.//FWLIB/src/stm32f10x_flash.c **** 
1100:.//FWLIB/src/stm32f10x_flash.c **** /**
1101:.//FWLIB/src/stm32f10x_flash.c ****   * @brief  Programs the FLASH User Option Byte: IWDG_SW / RST_STOP / RST_STDBY.
1102:.//FWLIB/src/stm32f10x_flash.c ****   * @note   This function can be used for all STM32F10x devices.
1103:.//FWLIB/src/stm32f10x_flash.c ****   * @param  OB_IWDG: Selects the IWDG mode
1104:.//FWLIB/src/stm32f10x_flash.c ****   *   This parameter can be one of the following values:
1105:.//FWLIB/src/stm32f10x_flash.c ****   *     @arg OB_IWDG_SW: Software IWDG selected
1106:.//FWLIB/src/stm32f10x_flash.c ****   *     @arg OB_IWDG_HW: Hardware IWDG selected
1107:.//FWLIB/src/stm32f10x_flash.c ****   * @param  OB_STOP: Reset event when entering STOP mode.
1108:.//FWLIB/src/stm32f10x_flash.c ****   *   This parameter can be one of the following values:
1109:.//FWLIB/src/stm32f10x_flash.c ****   *     @arg OB_STOP_NoRST: No reset generated when entering in STOP
1110:.//FWLIB/src/stm32f10x_flash.c ****   *     @arg OB_STOP_RST: Reset generated when entering in STOP
1111:.//FWLIB/src/stm32f10x_flash.c ****   * @param  OB_STDBY: Reset event when entering Standby mode.
1112:.//FWLIB/src/stm32f10x_flash.c ****   *   This parameter can be one of the following values:
1113:.//FWLIB/src/stm32f10x_flash.c ****   *     @arg OB_STDBY_NoRST: No reset generated when entering in STANDBY
1114:.//FWLIB/src/stm32f10x_flash.c ****   *     @arg OB_STDBY_RST: Reset generated when entering in STANDBY
1115:.//FWLIB/src/stm32f10x_flash.c ****   * @retval FLASH Status: The returned value can be: FLASH_ERROR_PG, 
1116:.//FWLIB/src/stm32f10x_flash.c ****   *         FLASH_ERROR_WRP, FLASH_COMPLETE or FLASH_TIMEOUT.
1117:.//FWLIB/src/stm32f10x_flash.c ****   */
1118:.//FWLIB/src/stm32f10x_flash.c **** FLASH_Status FLASH_UserOptionByteConfig(uint16_t OB_IWDG, uint16_t OB_STOP, uint16_t OB_STDBY)
1119:.//FWLIB/src/stm32f10x_flash.c **** {
1120:.//FWLIB/src/stm32f10x_flash.c ****   FLASH_Status status = FLASH_COMPLETE; 
1121:.//FWLIB/src/stm32f10x_flash.c **** 
1122:.//FWLIB/src/stm32f10x_flash.c ****   /* Check the parameters */
1123:.//FWLIB/src/stm32f10x_flash.c ****   assert_param(IS_OB_IWDG_SOURCE(OB_IWDG));
1124:.//FWLIB/src/stm32f10x_flash.c ****   assert_param(IS_OB_STOP_SOURCE(OB_STOP));
1125:.//FWLIB/src/stm32f10x_flash.c ****   assert_param(IS_OB_STDBY_SOURCE(OB_STDBY));
1126:.//FWLIB/src/stm32f10x_flash.c **** 
1127:.//FWLIB/src/stm32f10x_flash.c ****   /* Authorize the small information block programming */
1128:.//FWLIB/src/stm32f10x_flash.c ****   FLASH->OPTKEYR = FLASH_KEY1;
1129:.//FWLIB/src/stm32f10x_flash.c ****   FLASH->OPTKEYR = FLASH_KEY2;
1130:.//FWLIB/src/stm32f10x_flash.c ****   
1131:.//FWLIB/src/stm32f10x_flash.c ****   /* Wait for last operation to be completed */
1132:.//FWLIB/src/stm32f10x_flash.c ****   status = FLASH_WaitForLastOperation(ProgramTimeout);
1133:.//FWLIB/src/stm32f10x_flash.c ****   
1134:.//FWLIB/src/stm32f10x_flash.c ****   if(status == FLASH_COMPLETE)
1135:.//FWLIB/src/stm32f10x_flash.c ****   {  
1136:.//FWLIB/src/stm32f10x_flash.c ****     /* Enable the Option Bytes Programming operation */
1137:.//FWLIB/src/stm32f10x_flash.c ****     FLASH->CR |= CR_OPTPG_Set; 
1138:.//FWLIB/src/stm32f10x_flash.c ****            
1139:.//FWLIB/src/stm32f10x_flash.c ****     OB->USER = OB_IWDG | (uint16_t)(OB_STOP | (uint16_t)(OB_STDBY | ((uint16_t)0xF8))); 
1140:.//FWLIB/src/stm32f10x_flash.c ****   
1141:.//FWLIB/src/stm32f10x_flash.c ****     /* Wait for last operation to be completed */
1142:.//FWLIB/src/stm32f10x_flash.c ****     status = FLASH_WaitForLastOperation(ProgramTimeout);
1143:.//FWLIB/src/stm32f10x_flash.c ****     if(status != FLASH_TIMEOUT)
1144:.//FWLIB/src/stm32f10x_flash.c ****     {
1145:.//FWLIB/src/stm32f10x_flash.c ****       /* if the program operation is completed, disable the OPTPG Bit */
1146:.//FWLIB/src/stm32f10x_flash.c ****       FLASH->CR &= CR_OPTPG_Reset;
1147:.//FWLIB/src/stm32f10x_flash.c ****     }
1148:.//FWLIB/src/stm32f10x_flash.c ****   }    
ARM GAS  /var/folders/v3/pl5z0pl12fx5br3g9j_y4ffr0000gn/T//cchvY1ju.s 			page 25


1149:.//FWLIB/src/stm32f10x_flash.c ****   /* Return the Option Byte program Status */
1150:.//FWLIB/src/stm32f10x_flash.c ****   return status;
1151:.//FWLIB/src/stm32f10x_flash.c **** }
1152:.//FWLIB/src/stm32f10x_flash.c **** 
1153:.//FWLIB/src/stm32f10x_flash.c **** #ifdef STM32F10X_XL
1154:.//FWLIB/src/stm32f10x_flash.c **** /**
1155:.//FWLIB/src/stm32f10x_flash.c ****   * @brief  Configures to boot from Bank1 or Bank2.  
1156:.//FWLIB/src/stm32f10x_flash.c ****   * @note   This function can be used only for STM32F10x_XL density devices.
1157:.//FWLIB/src/stm32f10x_flash.c ****   * @param  FLASH_BOOT: select the FLASH Bank to boot from.
1158:.//FWLIB/src/stm32f10x_flash.c ****   *   This parameter can be one of the following values:
1159:.//FWLIB/src/stm32f10x_flash.c ****   *     @arg FLASH_BOOT_Bank1: At startup, if boot pins are set in boot from user Flash
1160:.//FWLIB/src/stm32f10x_flash.c ****   *        position and this parameter is selected the device will boot from Bank1(Default).
1161:.//FWLIB/src/stm32f10x_flash.c ****   *     @arg FLASH_BOOT_Bank2: At startup, if boot pins are set in boot from user Flash
1162:.//FWLIB/src/stm32f10x_flash.c ****   *        position and this parameter is selected the device will boot from Bank2 or Bank1,
1163:.//FWLIB/src/stm32f10x_flash.c ****   *        depending on the activation of the bank. The active banks are checked in
1164:.//FWLIB/src/stm32f10x_flash.c ****   *        the following order: Bank2, followed by Bank1.
1165:.//FWLIB/src/stm32f10x_flash.c ****   *        The active bank is recognized by the value programmed at the base address
1166:.//FWLIB/src/stm32f10x_flash.c ****   *        of the respective bank (corresponding to the initial stack pointer value
1167:.//FWLIB/src/stm32f10x_flash.c ****   *        in the interrupt vector table).
1168:.//FWLIB/src/stm32f10x_flash.c ****   *        For more information, please refer to AN2606 from www.st.com.    
1169:.//FWLIB/src/stm32f10x_flash.c ****   * @retval FLASH Status: The returned value can be: FLASH_ERROR_PG, 
1170:.//FWLIB/src/stm32f10x_flash.c ****   *         FLASH_ERROR_WRP, FLASH_COMPLETE or FLASH_TIMEOUT.
1171:.//FWLIB/src/stm32f10x_flash.c ****   */
1172:.//FWLIB/src/stm32f10x_flash.c **** FLASH_Status FLASH_BootConfig(uint16_t FLASH_BOOT)
1173:.//FWLIB/src/stm32f10x_flash.c **** { 
1174:.//FWLIB/src/stm32f10x_flash.c ****   FLASH_Status status = FLASH_COMPLETE; 
1175:.//FWLIB/src/stm32f10x_flash.c ****   assert_param(IS_FLASH_BOOT(FLASH_BOOT));
1176:.//FWLIB/src/stm32f10x_flash.c ****   /* Authorize the small information block programming */
1177:.//FWLIB/src/stm32f10x_flash.c ****   FLASH->OPTKEYR = FLASH_KEY1;
1178:.//FWLIB/src/stm32f10x_flash.c ****   FLASH->OPTKEYR = FLASH_KEY2;
1179:.//FWLIB/src/stm32f10x_flash.c ****   
1180:.//FWLIB/src/stm32f10x_flash.c ****   /* Wait for last operation to be completed */
1181:.//FWLIB/src/stm32f10x_flash.c ****   status = FLASH_WaitForLastOperation(ProgramTimeout);
1182:.//FWLIB/src/stm32f10x_flash.c ****   
1183:.//FWLIB/src/stm32f10x_flash.c ****   if(status == FLASH_COMPLETE)
1184:.//FWLIB/src/stm32f10x_flash.c ****   {  
1185:.//FWLIB/src/stm32f10x_flash.c ****     /* Enable the Option Bytes Programming operation */
1186:.//FWLIB/src/stm32f10x_flash.c ****     FLASH->CR |= CR_OPTPG_Set; 
1187:.//FWLIB/src/stm32f10x_flash.c **** 
1188:.//FWLIB/src/stm32f10x_flash.c ****     if(FLASH_BOOT == FLASH_BOOT_Bank1)
1189:.//FWLIB/src/stm32f10x_flash.c ****     {
1190:.//FWLIB/src/stm32f10x_flash.c ****       OB->USER |= OB_USER_BFB2;
1191:.//FWLIB/src/stm32f10x_flash.c ****     }
1192:.//FWLIB/src/stm32f10x_flash.c ****     else
1193:.//FWLIB/src/stm32f10x_flash.c ****     {
1194:.//FWLIB/src/stm32f10x_flash.c ****       OB->USER &= (uint16_t)(~(uint16_t)(OB_USER_BFB2));
1195:.//FWLIB/src/stm32f10x_flash.c ****     }
1196:.//FWLIB/src/stm32f10x_flash.c ****     /* Wait for last operation to be completed */
1197:.//FWLIB/src/stm32f10x_flash.c ****     status = FLASH_WaitForLastOperation(ProgramTimeout);
1198:.//FWLIB/src/stm32f10x_flash.c ****     if(status != FLASH_TIMEOUT)
1199:.//FWLIB/src/stm32f10x_flash.c ****     {
1200:.//FWLIB/src/stm32f10x_flash.c ****       /* if the program operation is completed, disable the OPTPG Bit */
1201:.//FWLIB/src/stm32f10x_flash.c ****       FLASH->CR &= CR_OPTPG_Reset;
1202:.//FWLIB/src/stm32f10x_flash.c ****     }
1203:.//FWLIB/src/stm32f10x_flash.c ****   }    
1204:.//FWLIB/src/stm32f10x_flash.c ****   /* Return the Option Byte program Status */
1205:.//FWLIB/src/stm32f10x_flash.c ****   return status;
ARM GAS  /var/folders/v3/pl5z0pl12fx5br3g9j_y4ffr0000gn/T//cchvY1ju.s 			page 26


1206:.//FWLIB/src/stm32f10x_flash.c **** }
1207:.//FWLIB/src/stm32f10x_flash.c **** #endif /* STM32F10X_XL */
1208:.//FWLIB/src/stm32f10x_flash.c **** 
1209:.//FWLIB/src/stm32f10x_flash.c **** /**
1210:.//FWLIB/src/stm32f10x_flash.c ****   * @brief  Returns the FLASH User Option Bytes values.
1211:.//FWLIB/src/stm32f10x_flash.c ****   * @note   This function can be used for all STM32F10x devices.
1212:.//FWLIB/src/stm32f10x_flash.c ****   * @param  None
1213:.//FWLIB/src/stm32f10x_flash.c ****   * @retval The FLASH User Option Bytes values:IWDG_SW(Bit0), RST_STOP(Bit1)
1214:.//FWLIB/src/stm32f10x_flash.c ****   *         and RST_STDBY(Bit2).
1215:.//FWLIB/src/stm32f10x_flash.c ****   */
1216:.//FWLIB/src/stm32f10x_flash.c **** uint32_t FLASH_GetUserOptionByte(void)
1217:.//FWLIB/src/stm32f10x_flash.c **** {
 236              		.loc 1 1217 0
 237              		.cfi_startproc
 238              		@ args = 0, pretend = 0, frame = 0
 239              		@ frame_needed = 0, uses_anonymous_args = 0
 240              		@ link register save eliminated.
1218:.//FWLIB/src/stm32f10x_flash.c ****   /* Return the User Option Byte */
1219:.//FWLIB/src/stm32f10x_flash.c ****   return (uint32_t)(FLASH->OBR >> 2);
 241              		.loc 1 1219 0
 242 0000 014B     		ldr	r3, .L23
 243 0002 D869     		ldr	r0, [r3, #28]
1220:.//FWLIB/src/stm32f10x_flash.c **** }
 244              		.loc 1 1220 0
 245 0004 8008     		lsrs	r0, r0, #2
 246 0006 7047     		bx	lr
 247              	.L24:
 248              		.align	2
 249              	.L23:
 250 0008 00200240 		.word	1073881088
 251              		.cfi_endproc
 252              	.LFE46:
 254              		.section	.text.FLASH_GetWriteProtectionOptionByte,"ax",%progbits
 255              		.align	2
 256              		.global	FLASH_GetWriteProtectionOptionByte
 257              		.thumb
 258              		.thumb_func
 260              	FLASH_GetWriteProtectionOptionByte:
 261              	.LFB47:
1221:.//FWLIB/src/stm32f10x_flash.c **** 
1222:.//FWLIB/src/stm32f10x_flash.c **** /**
1223:.//FWLIB/src/stm32f10x_flash.c ****   * @brief  Returns the FLASH Write Protection Option Bytes Register value.
1224:.//FWLIB/src/stm32f10x_flash.c ****   * @note   This function can be used for all STM32F10x devices.
1225:.//FWLIB/src/stm32f10x_flash.c ****   * @param  None
1226:.//FWLIB/src/stm32f10x_flash.c ****   * @retval The FLASH Write Protection  Option Bytes Register value
1227:.//FWLIB/src/stm32f10x_flash.c ****   */
1228:.//FWLIB/src/stm32f10x_flash.c **** uint32_t FLASH_GetWriteProtectionOptionByte(void)
1229:.//FWLIB/src/stm32f10x_flash.c **** {
 262              		.loc 1 1229 0
 263              		.cfi_startproc
 264              		@ args = 0, pretend = 0, frame = 0
 265              		@ frame_needed = 0, uses_anonymous_args = 0
 266              		@ link register save eliminated.
1230:.//FWLIB/src/stm32f10x_flash.c ****   /* Return the Flash write protection Register value */
1231:.//FWLIB/src/stm32f10x_flash.c ****   return (uint32_t)(FLASH->WRPR);
 267              		.loc 1 1231 0
 268 0000 014B     		ldr	r3, .L26
ARM GAS  /var/folders/v3/pl5z0pl12fx5br3g9j_y4ffr0000gn/T//cchvY1ju.s 			page 27


 269 0002 186A     		ldr	r0, [r3, #32]
1232:.//FWLIB/src/stm32f10x_flash.c **** }
 270              		.loc 1 1232 0
 271 0004 7047     		bx	lr
 272              	.L27:
 273 0006 00BF     		.align	2
 274              	.L26:
 275 0008 00200240 		.word	1073881088
 276              		.cfi_endproc
 277              	.LFE47:
 279              		.section	.text.FLASH_GetReadOutProtectionStatus,"ax",%progbits
 280              		.align	2
 281              		.global	FLASH_GetReadOutProtectionStatus
 282              		.thumb
 283              		.thumb_func
 285              	FLASH_GetReadOutProtectionStatus:
 286              	.LFB48:
1233:.//FWLIB/src/stm32f10x_flash.c **** 
1234:.//FWLIB/src/stm32f10x_flash.c **** /**
1235:.//FWLIB/src/stm32f10x_flash.c ****   * @brief  Checks whether the FLASH Read Out Protection Status is set or not.
1236:.//FWLIB/src/stm32f10x_flash.c ****   * @note   This function can be used for all STM32F10x devices.
1237:.//FWLIB/src/stm32f10x_flash.c ****   * @param  None
1238:.//FWLIB/src/stm32f10x_flash.c ****   * @retval FLASH ReadOut Protection Status(SET or RESET)
1239:.//FWLIB/src/stm32f10x_flash.c ****   */
1240:.//FWLIB/src/stm32f10x_flash.c **** FlagStatus FLASH_GetReadOutProtectionStatus(void)
1241:.//FWLIB/src/stm32f10x_flash.c **** {
 287              		.loc 1 1241 0
 288              		.cfi_startproc
 289              		@ args = 0, pretend = 0, frame = 0
 290              		@ frame_needed = 0, uses_anonymous_args = 0
 291              		@ link register save eliminated.
 292              	.LVL8:
1242:.//FWLIB/src/stm32f10x_flash.c ****   FlagStatus readoutstatus = RESET;
1243:.//FWLIB/src/stm32f10x_flash.c ****   if ((FLASH->OBR & RDPRT_Mask) != (uint32_t)RESET)
 293              		.loc 1 1243 0
 294 0000 044B     		ldr	r3, .L31
 295 0002 DB69     		ldr	r3, [r3, #28]
 296 0004 13F0020F 		tst	r3, #2
 297 0008 01D0     		beq	.L30
1244:.//FWLIB/src/stm32f10x_flash.c ****   {
1245:.//FWLIB/src/stm32f10x_flash.c ****     readoutstatus = SET;
 298              		.loc 1 1245 0
 299 000a 0120     		movs	r0, #1
 300 000c 7047     		bx	lr
 301              	.L30:
1246:.//FWLIB/src/stm32f10x_flash.c ****   }
1247:.//FWLIB/src/stm32f10x_flash.c ****   else
1248:.//FWLIB/src/stm32f10x_flash.c ****   {
1249:.//FWLIB/src/stm32f10x_flash.c ****     readoutstatus = RESET;
 302              		.loc 1 1249 0
 303 000e 0020     		movs	r0, #0
 304              	.LVL9:
1250:.//FWLIB/src/stm32f10x_flash.c ****   }
1251:.//FWLIB/src/stm32f10x_flash.c ****   return readoutstatus;
1252:.//FWLIB/src/stm32f10x_flash.c **** }
 305              		.loc 1 1252 0
 306 0010 7047     		bx	lr
ARM GAS  /var/folders/v3/pl5z0pl12fx5br3g9j_y4ffr0000gn/T//cchvY1ju.s 			page 28


 307              	.L32:
 308 0012 00BF     		.align	2
 309              	.L31:
 310 0014 00200240 		.word	1073881088
 311              		.cfi_endproc
 312              	.LFE48:
 314              		.section	.text.FLASH_GetPrefetchBufferStatus,"ax",%progbits
 315              		.align	2
 316              		.global	FLASH_GetPrefetchBufferStatus
 317              		.thumb
 318              		.thumb_func
 320              	FLASH_GetPrefetchBufferStatus:
 321              	.LFB49:
1253:.//FWLIB/src/stm32f10x_flash.c **** 
1254:.//FWLIB/src/stm32f10x_flash.c **** /**
1255:.//FWLIB/src/stm32f10x_flash.c ****   * @brief  Checks whether the FLASH Prefetch Buffer status is set or not.
1256:.//FWLIB/src/stm32f10x_flash.c ****   * @note   This function can be used for all STM32F10x devices.
1257:.//FWLIB/src/stm32f10x_flash.c ****   * @param  None
1258:.//FWLIB/src/stm32f10x_flash.c ****   * @retval FLASH Prefetch Buffer Status (SET or RESET).
1259:.//FWLIB/src/stm32f10x_flash.c ****   */
1260:.//FWLIB/src/stm32f10x_flash.c **** FlagStatus FLASH_GetPrefetchBufferStatus(void)
1261:.//FWLIB/src/stm32f10x_flash.c **** {
 322              		.loc 1 1261 0
 323              		.cfi_startproc
 324              		@ args = 0, pretend = 0, frame = 0
 325              		@ frame_needed = 0, uses_anonymous_args = 0
 326              		@ link register save eliminated.
 327              	.LVL10:
1262:.//FWLIB/src/stm32f10x_flash.c ****   FlagStatus bitstatus = RESET;
1263:.//FWLIB/src/stm32f10x_flash.c ****   
1264:.//FWLIB/src/stm32f10x_flash.c ****   if ((FLASH->ACR & ACR_PRFTBS_Mask) != (uint32_t)RESET)
 328              		.loc 1 1264 0
 329 0000 044B     		ldr	r3, .L36
 330 0002 1B68     		ldr	r3, [r3]
 331 0004 13F0200F 		tst	r3, #32
 332 0008 01D0     		beq	.L35
1265:.//FWLIB/src/stm32f10x_flash.c ****   {
1266:.//FWLIB/src/stm32f10x_flash.c ****     bitstatus = SET;
 333              		.loc 1 1266 0
 334 000a 0120     		movs	r0, #1
 335 000c 7047     		bx	lr
 336              	.L35:
1267:.//FWLIB/src/stm32f10x_flash.c ****   }
1268:.//FWLIB/src/stm32f10x_flash.c ****   else
1269:.//FWLIB/src/stm32f10x_flash.c ****   {
1270:.//FWLIB/src/stm32f10x_flash.c ****     bitstatus = RESET;
 337              		.loc 1 1270 0
 338 000e 0020     		movs	r0, #0
 339              	.LVL11:
1271:.//FWLIB/src/stm32f10x_flash.c ****   }
1272:.//FWLIB/src/stm32f10x_flash.c ****   /* Return the new state of FLASH Prefetch Buffer Status (SET or RESET) */
1273:.//FWLIB/src/stm32f10x_flash.c ****   return bitstatus; 
1274:.//FWLIB/src/stm32f10x_flash.c **** }
 340              		.loc 1 1274 0
 341 0010 7047     		bx	lr
 342              	.L37:
 343 0012 00BF     		.align	2
ARM GAS  /var/folders/v3/pl5z0pl12fx5br3g9j_y4ffr0000gn/T//cchvY1ju.s 			page 29


 344              	.L36:
 345 0014 00200240 		.word	1073881088
 346              		.cfi_endproc
 347              	.LFE49:
 349              		.section	.text.FLASH_ITConfig,"ax",%progbits
 350              		.align	2
 351              		.global	FLASH_ITConfig
 352              		.thumb
 353              		.thumb_func
 355              	FLASH_ITConfig:
 356              	.LFB50:
1275:.//FWLIB/src/stm32f10x_flash.c **** 
1276:.//FWLIB/src/stm32f10x_flash.c **** /**
1277:.//FWLIB/src/stm32f10x_flash.c ****   * @brief  Enables or disables the specified FLASH interrupts.
1278:.//FWLIB/src/stm32f10x_flash.c ****   * @note   This function can be used for all STM32F10x devices.
1279:.//FWLIB/src/stm32f10x_flash.c ****   *         - For STM32F10X_XL devices, enables or disables the specified FLASH interrupts
1280:.//FWLIB/src/stm32f10x_flash.c ****               for Bank1 and Bank2.
1281:.//FWLIB/src/stm32f10x_flash.c ****   *         - For other devices it enables or disables the specified FLASH interrupts for Bank1.
1282:.//FWLIB/src/stm32f10x_flash.c ****   * @param  FLASH_IT: specifies the FLASH interrupt sources to be enabled or disabled.
1283:.//FWLIB/src/stm32f10x_flash.c ****   *   This parameter can be any combination of the following values:
1284:.//FWLIB/src/stm32f10x_flash.c ****   *     @arg FLASH_IT_ERROR: FLASH Error Interrupt
1285:.//FWLIB/src/stm32f10x_flash.c ****   *     @arg FLASH_IT_EOP: FLASH end of operation Interrupt
1286:.//FWLIB/src/stm32f10x_flash.c ****   * @param  NewState: new state of the specified Flash interrupts.
1287:.//FWLIB/src/stm32f10x_flash.c ****   *   This parameter can be: ENABLE or DISABLE.      
1288:.//FWLIB/src/stm32f10x_flash.c ****   * @retval None 
1289:.//FWLIB/src/stm32f10x_flash.c ****   */
1290:.//FWLIB/src/stm32f10x_flash.c **** void FLASH_ITConfig(uint32_t FLASH_IT, FunctionalState NewState)
1291:.//FWLIB/src/stm32f10x_flash.c **** {
 357              		.loc 1 1291 0
 358              		.cfi_startproc
 359              		@ args = 0, pretend = 0, frame = 0
 360              		@ frame_needed = 0, uses_anonymous_args = 0
 361              		@ link register save eliminated.
 362              	.LVL12:
1292:.//FWLIB/src/stm32f10x_flash.c **** #ifdef STM32F10X_XL
1293:.//FWLIB/src/stm32f10x_flash.c ****   /* Check the parameters */
1294:.//FWLIB/src/stm32f10x_flash.c ****   assert_param(IS_FLASH_IT(FLASH_IT)); 
1295:.//FWLIB/src/stm32f10x_flash.c ****   assert_param(IS_FUNCTIONAL_STATE(NewState));
1296:.//FWLIB/src/stm32f10x_flash.c **** 
1297:.//FWLIB/src/stm32f10x_flash.c ****   if((FLASH_IT & 0x80000000) != 0x0)
1298:.//FWLIB/src/stm32f10x_flash.c ****   {
1299:.//FWLIB/src/stm32f10x_flash.c ****     if(NewState != DISABLE)
1300:.//FWLIB/src/stm32f10x_flash.c ****     {
1301:.//FWLIB/src/stm32f10x_flash.c ****       /* Enable the interrupt sources */
1302:.//FWLIB/src/stm32f10x_flash.c ****       FLASH->CR2 |= (FLASH_IT & 0x7FFFFFFF);
1303:.//FWLIB/src/stm32f10x_flash.c ****     }
1304:.//FWLIB/src/stm32f10x_flash.c ****     else
1305:.//FWLIB/src/stm32f10x_flash.c ****     {
1306:.//FWLIB/src/stm32f10x_flash.c ****       /* Disable the interrupt sources */
1307:.//FWLIB/src/stm32f10x_flash.c ****       FLASH->CR2 &= ~(uint32_t)(FLASH_IT & 0x7FFFFFFF);
1308:.//FWLIB/src/stm32f10x_flash.c ****     }
1309:.//FWLIB/src/stm32f10x_flash.c ****   }
1310:.//FWLIB/src/stm32f10x_flash.c ****   else
1311:.//FWLIB/src/stm32f10x_flash.c ****   {
1312:.//FWLIB/src/stm32f10x_flash.c ****     if(NewState != DISABLE)
1313:.//FWLIB/src/stm32f10x_flash.c ****     {
1314:.//FWLIB/src/stm32f10x_flash.c ****       /* Enable the interrupt sources */
ARM GAS  /var/folders/v3/pl5z0pl12fx5br3g9j_y4ffr0000gn/T//cchvY1ju.s 			page 30


1315:.//FWLIB/src/stm32f10x_flash.c ****       FLASH->CR |= FLASH_IT;
1316:.//FWLIB/src/stm32f10x_flash.c ****     }
1317:.//FWLIB/src/stm32f10x_flash.c ****     else
1318:.//FWLIB/src/stm32f10x_flash.c ****     {
1319:.//FWLIB/src/stm32f10x_flash.c ****       /* Disable the interrupt sources */
1320:.//FWLIB/src/stm32f10x_flash.c ****       FLASH->CR &= ~(uint32_t)FLASH_IT;
1321:.//FWLIB/src/stm32f10x_flash.c ****     }
1322:.//FWLIB/src/stm32f10x_flash.c ****   }
1323:.//FWLIB/src/stm32f10x_flash.c **** #else
1324:.//FWLIB/src/stm32f10x_flash.c ****   /* Check the parameters */
1325:.//FWLIB/src/stm32f10x_flash.c ****   assert_param(IS_FLASH_IT(FLASH_IT)); 
1326:.//FWLIB/src/stm32f10x_flash.c ****   assert_param(IS_FUNCTIONAL_STATE(NewState));
1327:.//FWLIB/src/stm32f10x_flash.c **** 
1328:.//FWLIB/src/stm32f10x_flash.c ****   if(NewState != DISABLE)
 363              		.loc 1 1328 0
 364 0000 21B1     		cbz	r1, .L39
1329:.//FWLIB/src/stm32f10x_flash.c ****   {
1330:.//FWLIB/src/stm32f10x_flash.c ****     /* Enable the interrupt sources */
1331:.//FWLIB/src/stm32f10x_flash.c ****     FLASH->CR |= FLASH_IT;
 365              		.loc 1 1331 0
 366 0002 054B     		ldr	r3, .L41
 367 0004 1A69     		ldr	r2, [r3, #16]
 368 0006 1043     		orrs	r0, r0, r2
 369              	.LVL13:
 370 0008 1861     		str	r0, [r3, #16]
 371 000a 7047     		bx	lr
 372              	.LVL14:
 373              	.L39:
1332:.//FWLIB/src/stm32f10x_flash.c ****   }
1333:.//FWLIB/src/stm32f10x_flash.c ****   else
1334:.//FWLIB/src/stm32f10x_flash.c ****   {
1335:.//FWLIB/src/stm32f10x_flash.c ****     /* Disable the interrupt sources */
1336:.//FWLIB/src/stm32f10x_flash.c ****     FLASH->CR &= ~(uint32_t)FLASH_IT;
 374              		.loc 1 1336 0
 375 000c 024A     		ldr	r2, .L41
 376 000e 1369     		ldr	r3, [r2, #16]
 377 0010 23EA0000 		bic	r0, r3, r0
 378              	.LVL15:
 379 0014 1061     		str	r0, [r2, #16]
 380 0016 7047     		bx	lr
 381              	.L42:
 382              		.align	2
 383              	.L41:
 384 0018 00200240 		.word	1073881088
 385              		.cfi_endproc
 386              	.LFE50:
 388              		.section	.text.FLASH_GetFlagStatus,"ax",%progbits
 389              		.align	2
 390              		.global	FLASH_GetFlagStatus
 391              		.thumb
 392              		.thumb_func
 394              	FLASH_GetFlagStatus:
 395              	.LFB51:
1337:.//FWLIB/src/stm32f10x_flash.c ****   }
1338:.//FWLIB/src/stm32f10x_flash.c **** #endif /* STM32F10X_XL */
1339:.//FWLIB/src/stm32f10x_flash.c **** }
1340:.//FWLIB/src/stm32f10x_flash.c **** 
ARM GAS  /var/folders/v3/pl5z0pl12fx5br3g9j_y4ffr0000gn/T//cchvY1ju.s 			page 31


1341:.//FWLIB/src/stm32f10x_flash.c **** /**
1342:.//FWLIB/src/stm32f10x_flash.c ****   * @brief  Checks whether the specified FLASH flag is set or not.
1343:.//FWLIB/src/stm32f10x_flash.c ****   * @note   This function can be used for all STM32F10x devices.
1344:.//FWLIB/src/stm32f10x_flash.c ****   *         - For STM32F10X_XL devices, this function checks whether the specified 
1345:.//FWLIB/src/stm32f10x_flash.c ****   *           Bank1 or Bank2 flag is set or not.
1346:.//FWLIB/src/stm32f10x_flash.c ****   *         - For other devices, it checks whether the specified Bank1 flag is 
1347:.//FWLIB/src/stm32f10x_flash.c ****   *           set or not.
1348:.//FWLIB/src/stm32f10x_flash.c ****   * @param  FLASH_FLAG: specifies the FLASH flag to check.
1349:.//FWLIB/src/stm32f10x_flash.c ****   *   This parameter can be one of the following values:
1350:.//FWLIB/src/stm32f10x_flash.c ****   *     @arg FLASH_FLAG_BSY: FLASH Busy flag           
1351:.//FWLIB/src/stm32f10x_flash.c ****   *     @arg FLASH_FLAG_PGERR: FLASH Program error flag       
1352:.//FWLIB/src/stm32f10x_flash.c ****   *     @arg FLASH_FLAG_WRPRTERR: FLASH Write protected error flag      
1353:.//FWLIB/src/stm32f10x_flash.c ****   *     @arg FLASH_FLAG_EOP: FLASH End of Operation flag           
1354:.//FWLIB/src/stm32f10x_flash.c ****   *     @arg FLASH_FLAG_OPTERR:  FLASH Option Byte error flag     
1355:.//FWLIB/src/stm32f10x_flash.c ****   * @retval The new state of FLASH_FLAG (SET or RESET).
1356:.//FWLIB/src/stm32f10x_flash.c ****   */
1357:.//FWLIB/src/stm32f10x_flash.c **** FlagStatus FLASH_GetFlagStatus(uint32_t FLASH_FLAG)
1358:.//FWLIB/src/stm32f10x_flash.c **** {
 396              		.loc 1 1358 0
 397              		.cfi_startproc
 398              		@ args = 0, pretend = 0, frame = 0
 399              		@ frame_needed = 0, uses_anonymous_args = 0
 400              		@ link register save eliminated.
 401              	.LVL16:
1359:.//FWLIB/src/stm32f10x_flash.c ****   FlagStatus bitstatus = RESET;
1360:.//FWLIB/src/stm32f10x_flash.c **** 
1361:.//FWLIB/src/stm32f10x_flash.c **** #ifdef STM32F10X_XL
1362:.//FWLIB/src/stm32f10x_flash.c ****   /* Check the parameters */
1363:.//FWLIB/src/stm32f10x_flash.c ****   assert_param(IS_FLASH_GET_FLAG(FLASH_FLAG)) ;
1364:.//FWLIB/src/stm32f10x_flash.c ****   if(FLASH_FLAG == FLASH_FLAG_OPTERR) 
1365:.//FWLIB/src/stm32f10x_flash.c ****   {
1366:.//FWLIB/src/stm32f10x_flash.c ****     if((FLASH->OBR & FLASH_FLAG_OPTERR) != (uint32_t)RESET)
1367:.//FWLIB/src/stm32f10x_flash.c ****     {
1368:.//FWLIB/src/stm32f10x_flash.c ****       bitstatus = SET;
1369:.//FWLIB/src/stm32f10x_flash.c ****     }
1370:.//FWLIB/src/stm32f10x_flash.c ****     else
1371:.//FWLIB/src/stm32f10x_flash.c ****     {
1372:.//FWLIB/src/stm32f10x_flash.c ****       bitstatus = RESET;
1373:.//FWLIB/src/stm32f10x_flash.c ****     }
1374:.//FWLIB/src/stm32f10x_flash.c ****   }
1375:.//FWLIB/src/stm32f10x_flash.c ****   else
1376:.//FWLIB/src/stm32f10x_flash.c ****   {
1377:.//FWLIB/src/stm32f10x_flash.c ****     if((FLASH_FLAG & 0x80000000) != 0x0)
1378:.//FWLIB/src/stm32f10x_flash.c ****     {
1379:.//FWLIB/src/stm32f10x_flash.c ****       if((FLASH->SR2 & FLASH_FLAG) != (uint32_t)RESET)
1380:.//FWLIB/src/stm32f10x_flash.c ****       {
1381:.//FWLIB/src/stm32f10x_flash.c ****         bitstatus = SET;
1382:.//FWLIB/src/stm32f10x_flash.c ****       }
1383:.//FWLIB/src/stm32f10x_flash.c ****       else
1384:.//FWLIB/src/stm32f10x_flash.c ****       {
1385:.//FWLIB/src/stm32f10x_flash.c ****         bitstatus = RESET;
1386:.//FWLIB/src/stm32f10x_flash.c ****       }
1387:.//FWLIB/src/stm32f10x_flash.c ****     }
1388:.//FWLIB/src/stm32f10x_flash.c ****     else
1389:.//FWLIB/src/stm32f10x_flash.c ****     {
1390:.//FWLIB/src/stm32f10x_flash.c ****       if((FLASH->SR & FLASH_FLAG) != (uint32_t)RESET)
1391:.//FWLIB/src/stm32f10x_flash.c ****       {
ARM GAS  /var/folders/v3/pl5z0pl12fx5br3g9j_y4ffr0000gn/T//cchvY1ju.s 			page 32


1392:.//FWLIB/src/stm32f10x_flash.c ****         bitstatus = SET;
1393:.//FWLIB/src/stm32f10x_flash.c ****       }
1394:.//FWLIB/src/stm32f10x_flash.c ****       else
1395:.//FWLIB/src/stm32f10x_flash.c ****       {
1396:.//FWLIB/src/stm32f10x_flash.c ****         bitstatus = RESET;
1397:.//FWLIB/src/stm32f10x_flash.c ****       }
1398:.//FWLIB/src/stm32f10x_flash.c ****     }
1399:.//FWLIB/src/stm32f10x_flash.c ****   }
1400:.//FWLIB/src/stm32f10x_flash.c **** #else
1401:.//FWLIB/src/stm32f10x_flash.c ****   /* Check the parameters */
1402:.//FWLIB/src/stm32f10x_flash.c ****   assert_param(IS_FLASH_GET_FLAG(FLASH_FLAG)) ;
1403:.//FWLIB/src/stm32f10x_flash.c ****   if(FLASH_FLAG == FLASH_FLAG_OPTERR) 
 402              		.loc 1 1403 0
 403 0000 0128     		cmp	r0, #1
 404 0002 05D1     		bne	.L44
1404:.//FWLIB/src/stm32f10x_flash.c ****   {
1405:.//FWLIB/src/stm32f10x_flash.c ****     if((FLASH->OBR & FLASH_FLAG_OPTERR) != (uint32_t)RESET)
 405              		.loc 1 1405 0
 406 0004 074B     		ldr	r3, .L48
 407 0006 DB69     		ldr	r3, [r3, #28]
 408 0008 13F0010F 		tst	r3, #1
 409 000c 06D0     		beq	.L46
 410 000e 7047     		bx	lr
 411              	.L44:
1406:.//FWLIB/src/stm32f10x_flash.c ****     {
1407:.//FWLIB/src/stm32f10x_flash.c ****       bitstatus = SET;
1408:.//FWLIB/src/stm32f10x_flash.c ****     }
1409:.//FWLIB/src/stm32f10x_flash.c ****     else
1410:.//FWLIB/src/stm32f10x_flash.c ****     {
1411:.//FWLIB/src/stm32f10x_flash.c ****       bitstatus = RESET;
1412:.//FWLIB/src/stm32f10x_flash.c ****     }
1413:.//FWLIB/src/stm32f10x_flash.c ****   }
1414:.//FWLIB/src/stm32f10x_flash.c ****   else
1415:.//FWLIB/src/stm32f10x_flash.c ****   {
1416:.//FWLIB/src/stm32f10x_flash.c ****    if((FLASH->SR & FLASH_FLAG) != (uint32_t)RESET)
 412              		.loc 1 1416 0
 413 0010 044B     		ldr	r3, .L48
 414 0012 DB68     		ldr	r3, [r3, #12]
 415 0014 1842     		tst	r0, r3
 416 0016 03D0     		beq	.L47
1417:.//FWLIB/src/stm32f10x_flash.c ****     {
1418:.//FWLIB/src/stm32f10x_flash.c ****       bitstatus = SET;
 417              		.loc 1 1418 0
 418 0018 0120     		movs	r0, #1
 419              	.LVL17:
 420 001a 7047     		bx	lr
 421              	.LVL18:
 422              	.L46:
1411:.//FWLIB/src/stm32f10x_flash.c ****     }
 423              		.loc 1 1411 0
 424 001c 0020     		movs	r0, #0
 425              	.LVL19:
 426 001e 7047     		bx	lr
 427              	.LVL20:
 428              	.L47:
1419:.//FWLIB/src/stm32f10x_flash.c ****     }
1420:.//FWLIB/src/stm32f10x_flash.c ****     else
ARM GAS  /var/folders/v3/pl5z0pl12fx5br3g9j_y4ffr0000gn/T//cchvY1ju.s 			page 33


1421:.//FWLIB/src/stm32f10x_flash.c ****     {
1422:.//FWLIB/src/stm32f10x_flash.c ****       bitstatus = RESET;
 429              		.loc 1 1422 0
 430 0020 0020     		movs	r0, #0
 431              	.LVL21:
1423:.//FWLIB/src/stm32f10x_flash.c ****     }
1424:.//FWLIB/src/stm32f10x_flash.c ****   }
1425:.//FWLIB/src/stm32f10x_flash.c **** #endif /* STM32F10X_XL */
1426:.//FWLIB/src/stm32f10x_flash.c **** 
1427:.//FWLIB/src/stm32f10x_flash.c ****   /* Return the new state of FLASH_FLAG (SET or RESET) */
1428:.//FWLIB/src/stm32f10x_flash.c ****   return bitstatus;
1429:.//FWLIB/src/stm32f10x_flash.c **** }
 432              		.loc 1 1429 0
 433 0022 7047     		bx	lr
 434              	.L49:
 435              		.align	2
 436              	.L48:
 437 0024 00200240 		.word	1073881088
 438              		.cfi_endproc
 439              	.LFE51:
 441              		.section	.text.FLASH_ClearFlag,"ax",%progbits
 442              		.align	2
 443              		.global	FLASH_ClearFlag
 444              		.thumb
 445              		.thumb_func
 447              	FLASH_ClearFlag:
 448              	.LFB52:
1430:.//FWLIB/src/stm32f10x_flash.c **** 
1431:.//FWLIB/src/stm32f10x_flash.c **** /**
1432:.//FWLIB/src/stm32f10x_flash.c ****   * @brief  Clears the FLASH's pending flags.
1433:.//FWLIB/src/stm32f10x_flash.c ****   * @note   This function can be used for all STM32F10x devices.
1434:.//FWLIB/src/stm32f10x_flash.c ****   *         - For STM32F10X_XL devices, this function clears Bank1 or Bank2s pending flags
1435:.//FWLIB/src/stm32f10x_flash.c ****   *         - For other devices, it clears Bank1s pending flags.
1436:.//FWLIB/src/stm32f10x_flash.c ****   * @param  FLASH_FLAG: specifies the FLASH flags to clear.
1437:.//FWLIB/src/stm32f10x_flash.c ****   *   This parameter can be any combination of the following values:         
1438:.//FWLIB/src/stm32f10x_flash.c ****   *     @arg FLASH_FLAG_PGERR: FLASH Program error flag       
1439:.//FWLIB/src/stm32f10x_flash.c ****   *     @arg FLASH_FLAG_WRPRTERR: FLASH Write protected error flag      
1440:.//FWLIB/src/stm32f10x_flash.c ****   *     @arg FLASH_FLAG_EOP: FLASH End of Operation flag           
1441:.//FWLIB/src/stm32f10x_flash.c ****   * @retval None
1442:.//FWLIB/src/stm32f10x_flash.c ****   */
1443:.//FWLIB/src/stm32f10x_flash.c **** void FLASH_ClearFlag(uint32_t FLASH_FLAG)
1444:.//FWLIB/src/stm32f10x_flash.c **** {
 449              		.loc 1 1444 0
 450              		.cfi_startproc
 451              		@ args = 0, pretend = 0, frame = 0
 452              		@ frame_needed = 0, uses_anonymous_args = 0
 453              		@ link register save eliminated.
 454              	.LVL22:
1445:.//FWLIB/src/stm32f10x_flash.c **** #ifdef STM32F10X_XL
1446:.//FWLIB/src/stm32f10x_flash.c ****   /* Check the parameters */
1447:.//FWLIB/src/stm32f10x_flash.c ****   assert_param(IS_FLASH_CLEAR_FLAG(FLASH_FLAG)) ;
1448:.//FWLIB/src/stm32f10x_flash.c **** 
1449:.//FWLIB/src/stm32f10x_flash.c ****   if((FLASH_FLAG & 0x80000000) != 0x0)
1450:.//FWLIB/src/stm32f10x_flash.c ****   {
1451:.//FWLIB/src/stm32f10x_flash.c ****     /* Clear the flags */
1452:.//FWLIB/src/stm32f10x_flash.c ****     FLASH->SR2 = FLASH_FLAG;
1453:.//FWLIB/src/stm32f10x_flash.c ****   }
ARM GAS  /var/folders/v3/pl5z0pl12fx5br3g9j_y4ffr0000gn/T//cchvY1ju.s 			page 34


1454:.//FWLIB/src/stm32f10x_flash.c ****   else
1455:.//FWLIB/src/stm32f10x_flash.c ****   {
1456:.//FWLIB/src/stm32f10x_flash.c ****     /* Clear the flags */
1457:.//FWLIB/src/stm32f10x_flash.c ****     FLASH->SR = FLASH_FLAG;
1458:.//FWLIB/src/stm32f10x_flash.c ****   }  
1459:.//FWLIB/src/stm32f10x_flash.c **** 
1460:.//FWLIB/src/stm32f10x_flash.c **** #else
1461:.//FWLIB/src/stm32f10x_flash.c ****   /* Check the parameters */
1462:.//FWLIB/src/stm32f10x_flash.c ****   assert_param(IS_FLASH_CLEAR_FLAG(FLASH_FLAG)) ;
1463:.//FWLIB/src/stm32f10x_flash.c ****   
1464:.//FWLIB/src/stm32f10x_flash.c ****   /* Clear the flags */
1465:.//FWLIB/src/stm32f10x_flash.c ****   FLASH->SR = FLASH_FLAG;
 455              		.loc 1 1465 0
 456 0000 014B     		ldr	r3, .L51
 457 0002 D860     		str	r0, [r3, #12]
 458 0004 7047     		bx	lr
 459              	.L52:
 460 0006 00BF     		.align	2
 461              	.L51:
 462 0008 00200240 		.word	1073881088
 463              		.cfi_endproc
 464              	.LFE52:
 466              		.section	.text.FLASH_GetStatus,"ax",%progbits
 467              		.align	2
 468              		.global	FLASH_GetStatus
 469              		.thumb
 470              		.thumb_func
 472              	FLASH_GetStatus:
 473              	.LFB53:
1466:.//FWLIB/src/stm32f10x_flash.c **** #endif /* STM32F10X_XL */
1467:.//FWLIB/src/stm32f10x_flash.c **** }
1468:.//FWLIB/src/stm32f10x_flash.c **** 
1469:.//FWLIB/src/stm32f10x_flash.c **** /**
1470:.//FWLIB/src/stm32f10x_flash.c ****   * @brief  Returns the FLASH Status.
1471:.//FWLIB/src/stm32f10x_flash.c ****   * @note   This function can be used for all STM32F10x devices, it is equivalent
1472:.//FWLIB/src/stm32f10x_flash.c ****   *         to FLASH_GetBank1Status function.
1473:.//FWLIB/src/stm32f10x_flash.c ****   * @param  None
1474:.//FWLIB/src/stm32f10x_flash.c ****   * @retval FLASH Status: The returned value can be: FLASH_BUSY, FLASH_ERROR_PG,
1475:.//FWLIB/src/stm32f10x_flash.c ****   *         FLASH_ERROR_WRP or FLASH_COMPLETE
1476:.//FWLIB/src/stm32f10x_flash.c ****   */
1477:.//FWLIB/src/stm32f10x_flash.c **** FLASH_Status FLASH_GetStatus(void)
1478:.//FWLIB/src/stm32f10x_flash.c **** {
 474              		.loc 1 1478 0
 475              		.cfi_startproc
 476              		@ args = 0, pretend = 0, frame = 0
 477              		@ frame_needed = 0, uses_anonymous_args = 0
 478              		@ link register save eliminated.
 479              	.LVL23:
1479:.//FWLIB/src/stm32f10x_flash.c ****   FLASH_Status flashstatus = FLASH_COMPLETE;
1480:.//FWLIB/src/stm32f10x_flash.c ****   
1481:.//FWLIB/src/stm32f10x_flash.c ****   if((FLASH->SR & FLASH_FLAG_BSY) == FLASH_FLAG_BSY) 
 480              		.loc 1 1481 0
 481 0000 0B4B     		ldr	r3, .L58
 482 0002 DB68     		ldr	r3, [r3, #12]
 483 0004 13F0010F 		tst	r3, #1
 484 0008 0BD1     		bne	.L55
1482:.//FWLIB/src/stm32f10x_flash.c ****   {
ARM GAS  /var/folders/v3/pl5z0pl12fx5br3g9j_y4ffr0000gn/T//cchvY1ju.s 			page 35


1483:.//FWLIB/src/stm32f10x_flash.c ****     flashstatus = FLASH_BUSY;
1484:.//FWLIB/src/stm32f10x_flash.c ****   }
1485:.//FWLIB/src/stm32f10x_flash.c ****   else 
1486:.//FWLIB/src/stm32f10x_flash.c ****   {  
1487:.//FWLIB/src/stm32f10x_flash.c ****     if((FLASH->SR & FLASH_FLAG_PGERR) != 0)
 485              		.loc 1 1487 0
 486 000a 094B     		ldr	r3, .L58
 487 000c DB68     		ldr	r3, [r3, #12]
 488 000e 13F0040F 		tst	r3, #4
 489 0012 08D1     		bne	.L56
1488:.//FWLIB/src/stm32f10x_flash.c ****     { 
1489:.//FWLIB/src/stm32f10x_flash.c ****       flashstatus = FLASH_ERROR_PG;
1490:.//FWLIB/src/stm32f10x_flash.c ****     }
1491:.//FWLIB/src/stm32f10x_flash.c ****     else 
1492:.//FWLIB/src/stm32f10x_flash.c ****     {
1493:.//FWLIB/src/stm32f10x_flash.c ****       if((FLASH->SR & FLASH_FLAG_WRPRTERR) != 0 )
 490              		.loc 1 1493 0
 491 0014 064B     		ldr	r3, .L58
 492 0016 DB68     		ldr	r3, [r3, #12]
 493 0018 13F0100F 		tst	r3, #16
 494 001c 05D0     		beq	.L57
1494:.//FWLIB/src/stm32f10x_flash.c ****       {
1495:.//FWLIB/src/stm32f10x_flash.c ****         flashstatus = FLASH_ERROR_WRP;
 495              		.loc 1 1495 0
 496 001e 0320     		movs	r0, #3
 497 0020 7047     		bx	lr
 498              	.L55:
1483:.//FWLIB/src/stm32f10x_flash.c ****   }
 499              		.loc 1 1483 0
 500 0022 0120     		movs	r0, #1
 501 0024 7047     		bx	lr
 502              	.L56:
1489:.//FWLIB/src/stm32f10x_flash.c ****     }
 503              		.loc 1 1489 0
 504 0026 0220     		movs	r0, #2
 505 0028 7047     		bx	lr
 506              	.L57:
1496:.//FWLIB/src/stm32f10x_flash.c ****       }
1497:.//FWLIB/src/stm32f10x_flash.c ****       else
1498:.//FWLIB/src/stm32f10x_flash.c ****       {
1499:.//FWLIB/src/stm32f10x_flash.c ****         flashstatus = FLASH_COMPLETE;
 507              		.loc 1 1499 0
 508 002a 0420     		movs	r0, #4
 509              	.LVL24:
1500:.//FWLIB/src/stm32f10x_flash.c ****       }
1501:.//FWLIB/src/stm32f10x_flash.c ****     }
1502:.//FWLIB/src/stm32f10x_flash.c ****   }
1503:.//FWLIB/src/stm32f10x_flash.c ****   /* Return the Flash Status */
1504:.//FWLIB/src/stm32f10x_flash.c ****   return flashstatus;
1505:.//FWLIB/src/stm32f10x_flash.c **** }
 510              		.loc 1 1505 0
 511 002c 7047     		bx	lr
 512              	.L59:
 513 002e 00BF     		.align	2
 514              	.L58:
 515 0030 00200240 		.word	1073881088
 516              		.cfi_endproc
ARM GAS  /var/folders/v3/pl5z0pl12fx5br3g9j_y4ffr0000gn/T//cchvY1ju.s 			page 36


 517              	.LFE53:
 519              		.section	.text.FLASH_GetBank1Status,"ax",%progbits
 520              		.align	2
 521              		.global	FLASH_GetBank1Status
 522              		.thumb
 523              		.thumb_func
 525              	FLASH_GetBank1Status:
 526              	.LFB54:
1506:.//FWLIB/src/stm32f10x_flash.c **** 
1507:.//FWLIB/src/stm32f10x_flash.c **** /**
1508:.//FWLIB/src/stm32f10x_flash.c ****   * @brief  Returns the FLASH Bank1 Status.
1509:.//FWLIB/src/stm32f10x_flash.c ****   * @note   This function can be used for all STM32F10x devices, it is equivalent
1510:.//FWLIB/src/stm32f10x_flash.c ****   *         to FLASH_GetStatus function.
1511:.//FWLIB/src/stm32f10x_flash.c ****   * @param  None
1512:.//FWLIB/src/stm32f10x_flash.c ****   * @retval FLASH Status: The returned value can be: FLASH_BUSY, FLASH_ERROR_PG,
1513:.//FWLIB/src/stm32f10x_flash.c ****   *         FLASH_ERROR_WRP or FLASH_COMPLETE
1514:.//FWLIB/src/stm32f10x_flash.c ****   */
1515:.//FWLIB/src/stm32f10x_flash.c **** FLASH_Status FLASH_GetBank1Status(void)
1516:.//FWLIB/src/stm32f10x_flash.c **** {
 527              		.loc 1 1516 0
 528              		.cfi_startproc
 529              		@ args = 0, pretend = 0, frame = 0
 530              		@ frame_needed = 0, uses_anonymous_args = 0
 531              		@ link register save eliminated.
 532              	.LVL25:
1517:.//FWLIB/src/stm32f10x_flash.c ****   FLASH_Status flashstatus = FLASH_COMPLETE;
1518:.//FWLIB/src/stm32f10x_flash.c ****   
1519:.//FWLIB/src/stm32f10x_flash.c ****   if((FLASH->SR & FLASH_FLAG_BANK1_BSY) == FLASH_FLAG_BSY) 
 533              		.loc 1 1519 0
 534 0000 0B4B     		ldr	r3, .L65
 535 0002 DB68     		ldr	r3, [r3, #12]
 536 0004 13F0010F 		tst	r3, #1
 537 0008 0BD1     		bne	.L62
1520:.//FWLIB/src/stm32f10x_flash.c ****   {
1521:.//FWLIB/src/stm32f10x_flash.c ****     flashstatus = FLASH_BUSY;
1522:.//FWLIB/src/stm32f10x_flash.c ****   }
1523:.//FWLIB/src/stm32f10x_flash.c ****   else 
1524:.//FWLIB/src/stm32f10x_flash.c ****   {  
1525:.//FWLIB/src/stm32f10x_flash.c ****     if((FLASH->SR & FLASH_FLAG_BANK1_PGERR) != 0)
 538              		.loc 1 1525 0
 539 000a 094B     		ldr	r3, .L65
 540 000c DB68     		ldr	r3, [r3, #12]
 541 000e 13F0040F 		tst	r3, #4
 542 0012 08D1     		bne	.L63
1526:.//FWLIB/src/stm32f10x_flash.c ****     { 
1527:.//FWLIB/src/stm32f10x_flash.c ****       flashstatus = FLASH_ERROR_PG;
1528:.//FWLIB/src/stm32f10x_flash.c ****     }
1529:.//FWLIB/src/stm32f10x_flash.c ****     else 
1530:.//FWLIB/src/stm32f10x_flash.c ****     {
1531:.//FWLIB/src/stm32f10x_flash.c ****       if((FLASH->SR & FLASH_FLAG_BANK1_WRPRTERR) != 0 )
 543              		.loc 1 1531 0
 544 0014 064B     		ldr	r3, .L65
 545 0016 DB68     		ldr	r3, [r3, #12]
 546 0018 13F0100F 		tst	r3, #16
 547 001c 05D0     		beq	.L64
1532:.//FWLIB/src/stm32f10x_flash.c ****       {
1533:.//FWLIB/src/stm32f10x_flash.c ****         flashstatus = FLASH_ERROR_WRP;
ARM GAS  /var/folders/v3/pl5z0pl12fx5br3g9j_y4ffr0000gn/T//cchvY1ju.s 			page 37


 548              		.loc 1 1533 0
 549 001e 0320     		movs	r0, #3
 550 0020 7047     		bx	lr
 551              	.L62:
1521:.//FWLIB/src/stm32f10x_flash.c ****   }
 552              		.loc 1 1521 0
 553 0022 0120     		movs	r0, #1
 554 0024 7047     		bx	lr
 555              	.L63:
1527:.//FWLIB/src/stm32f10x_flash.c ****     }
 556              		.loc 1 1527 0
 557 0026 0220     		movs	r0, #2
 558 0028 7047     		bx	lr
 559              	.L64:
1534:.//FWLIB/src/stm32f10x_flash.c ****       }
1535:.//FWLIB/src/stm32f10x_flash.c ****       else
1536:.//FWLIB/src/stm32f10x_flash.c ****       {
1537:.//FWLIB/src/stm32f10x_flash.c ****         flashstatus = FLASH_COMPLETE;
 560              		.loc 1 1537 0
 561 002a 0420     		movs	r0, #4
 562              	.LVL26:
1538:.//FWLIB/src/stm32f10x_flash.c ****       }
1539:.//FWLIB/src/stm32f10x_flash.c ****     }
1540:.//FWLIB/src/stm32f10x_flash.c ****   }
1541:.//FWLIB/src/stm32f10x_flash.c ****   /* Return the Flash Status */
1542:.//FWLIB/src/stm32f10x_flash.c ****   return flashstatus;
1543:.//FWLIB/src/stm32f10x_flash.c **** }
 563              		.loc 1 1543 0
 564 002c 7047     		bx	lr
 565              	.L66:
 566 002e 00BF     		.align	2
 567              	.L65:
 568 0030 00200240 		.word	1073881088
 569              		.cfi_endproc
 570              	.LFE54:
 572              		.section	.text.FLASH_WaitForLastOperation,"ax",%progbits
 573              		.align	2
 574              		.global	FLASH_WaitForLastOperation
 575              		.thumb
 576              		.thumb_func
 578              	FLASH_WaitForLastOperation:
 579              	.LFB55:
1544:.//FWLIB/src/stm32f10x_flash.c **** 
1545:.//FWLIB/src/stm32f10x_flash.c **** #ifdef STM32F10X_XL
1546:.//FWLIB/src/stm32f10x_flash.c **** /**
1547:.//FWLIB/src/stm32f10x_flash.c ****   * @brief  Returns the FLASH Bank2 Status.
1548:.//FWLIB/src/stm32f10x_flash.c ****   * @note   This function can be used for STM32F10x_XL density devices.
1549:.//FWLIB/src/stm32f10x_flash.c ****   * @param  None
1550:.//FWLIB/src/stm32f10x_flash.c ****   * @retval FLASH Status: The returned value can be: FLASH_BUSY, FLASH_ERROR_PG,
1551:.//FWLIB/src/stm32f10x_flash.c ****   *        FLASH_ERROR_WRP or FLASH_COMPLETE
1552:.//FWLIB/src/stm32f10x_flash.c ****   */
1553:.//FWLIB/src/stm32f10x_flash.c **** FLASH_Status FLASH_GetBank2Status(void)
1554:.//FWLIB/src/stm32f10x_flash.c **** {
1555:.//FWLIB/src/stm32f10x_flash.c ****   FLASH_Status flashstatus = FLASH_COMPLETE;
1556:.//FWLIB/src/stm32f10x_flash.c ****   
1557:.//FWLIB/src/stm32f10x_flash.c ****   if((FLASH->SR2 & (FLASH_FLAG_BANK2_BSY & 0x7FFFFFFF)) == (FLASH_FLAG_BANK2_BSY & 0x7FFFFFFF)) 
1558:.//FWLIB/src/stm32f10x_flash.c ****   {
ARM GAS  /var/folders/v3/pl5z0pl12fx5br3g9j_y4ffr0000gn/T//cchvY1ju.s 			page 38


1559:.//FWLIB/src/stm32f10x_flash.c ****     flashstatus = FLASH_BUSY;
1560:.//FWLIB/src/stm32f10x_flash.c ****   }
1561:.//FWLIB/src/stm32f10x_flash.c ****   else 
1562:.//FWLIB/src/stm32f10x_flash.c ****   {  
1563:.//FWLIB/src/stm32f10x_flash.c ****     if((FLASH->SR2 & (FLASH_FLAG_BANK2_PGERR & 0x7FFFFFFF)) != 0)
1564:.//FWLIB/src/stm32f10x_flash.c ****     { 
1565:.//FWLIB/src/stm32f10x_flash.c ****       flashstatus = FLASH_ERROR_PG;
1566:.//FWLIB/src/stm32f10x_flash.c ****     }
1567:.//FWLIB/src/stm32f10x_flash.c ****     else 
1568:.//FWLIB/src/stm32f10x_flash.c ****     {
1569:.//FWLIB/src/stm32f10x_flash.c ****       if((FLASH->SR2 & (FLASH_FLAG_BANK2_WRPRTERR & 0x7FFFFFFF)) != 0 )
1570:.//FWLIB/src/stm32f10x_flash.c ****       {
1571:.//FWLIB/src/stm32f10x_flash.c ****         flashstatus = FLASH_ERROR_WRP;
1572:.//FWLIB/src/stm32f10x_flash.c ****       }
1573:.//FWLIB/src/stm32f10x_flash.c ****       else
1574:.//FWLIB/src/stm32f10x_flash.c ****       {
1575:.//FWLIB/src/stm32f10x_flash.c ****         flashstatus = FLASH_COMPLETE;
1576:.//FWLIB/src/stm32f10x_flash.c ****       }
1577:.//FWLIB/src/stm32f10x_flash.c ****     }
1578:.//FWLIB/src/stm32f10x_flash.c ****   }
1579:.//FWLIB/src/stm32f10x_flash.c ****   /* Return the Flash Status */
1580:.//FWLIB/src/stm32f10x_flash.c ****   return flashstatus;
1581:.//FWLIB/src/stm32f10x_flash.c **** }
1582:.//FWLIB/src/stm32f10x_flash.c **** #endif /* STM32F10X_XL */
1583:.//FWLIB/src/stm32f10x_flash.c **** /**
1584:.//FWLIB/src/stm32f10x_flash.c ****   * @brief  Waits for a Flash operation to complete or a TIMEOUT to occur.
1585:.//FWLIB/src/stm32f10x_flash.c ****   * @note   This function can be used for all STM32F10x devices, 
1586:.//FWLIB/src/stm32f10x_flash.c ****   *         it is equivalent to FLASH_WaitForLastBank1Operation.
1587:.//FWLIB/src/stm32f10x_flash.c ****   *         - For STM32F10X_XL devices this function waits for a Bank1 Flash operation
1588:.//FWLIB/src/stm32f10x_flash.c ****   *           to complete or a TIMEOUT to occur.
1589:.//FWLIB/src/stm32f10x_flash.c ****   *         - For all other devices it waits for a Flash operation to complete 
1590:.//FWLIB/src/stm32f10x_flash.c ****   *           or a TIMEOUT to occur.
1591:.//FWLIB/src/stm32f10x_flash.c ****   * @param  Timeout: FLASH programming Timeout
1592:.//FWLIB/src/stm32f10x_flash.c ****   * @retval FLASH Status: The returned value can be: FLASH_ERROR_PG,
1593:.//FWLIB/src/stm32f10x_flash.c ****   *         FLASH_ERROR_WRP, FLASH_COMPLETE or FLASH_TIMEOUT.
1594:.//FWLIB/src/stm32f10x_flash.c ****   */
1595:.//FWLIB/src/stm32f10x_flash.c **** FLASH_Status FLASH_WaitForLastOperation(uint32_t Timeout)
1596:.//FWLIB/src/stm32f10x_flash.c **** { 
 580              		.loc 1 1596 0
 581              		.cfi_startproc
 582              		@ args = 0, pretend = 0, frame = 0
 583              		@ frame_needed = 0, uses_anonymous_args = 0
 584              	.LVL27:
 585 0000 10B5     		push	{r4, lr}
 586              	.LCFI0:
 587              		.cfi_def_cfa_offset 8
 588              		.cfi_offset 4, -8
 589              		.cfi_offset 14, -4
 590 0002 0446     		mov	r4, r0
 591              	.LVL28:
1597:.//FWLIB/src/stm32f10x_flash.c ****   FLASH_Status status = FLASH_COMPLETE;
1598:.//FWLIB/src/stm32f10x_flash.c ****    
1599:.//FWLIB/src/stm32f10x_flash.c ****   /* Check for the Flash Status */
1600:.//FWLIB/src/stm32f10x_flash.c ****   status = FLASH_GetBank1Status();
 592              		.loc 1 1600 0
 593 0004 FFF7FEFF 		bl	FLASH_GetBank1Status
 594              	.LVL29:
ARM GAS  /var/folders/v3/pl5z0pl12fx5br3g9j_y4ffr0000gn/T//cchvY1ju.s 			page 39


1601:.//FWLIB/src/stm32f10x_flash.c ****   /* Wait for a Flash operation to complete or a TIMEOUT to occur */
1602:.//FWLIB/src/stm32f10x_flash.c ****   while((status == FLASH_BUSY) && (Timeout != 0x00))
 595              		.loc 1 1602 0
 596 0008 02E0     		b	.L68
 597              	.L70:
1603:.//FWLIB/src/stm32f10x_flash.c ****   {
1604:.//FWLIB/src/stm32f10x_flash.c ****     status = FLASH_GetBank1Status();
 598              		.loc 1 1604 0
 599 000a FFF7FEFF 		bl	FLASH_GetBank1Status
 600              	.LVL30:
1605:.//FWLIB/src/stm32f10x_flash.c ****     Timeout--;
 601              		.loc 1 1605 0
 602 000e 013C     		subs	r4, r4, #1
 603              	.LVL31:
 604              	.L68:
1602:.//FWLIB/src/stm32f10x_flash.c ****   {
 605              		.loc 1 1602 0
 606 0010 0128     		cmp	r0, #1
 607 0012 01D1     		bne	.L69
1602:.//FWLIB/src/stm32f10x_flash.c ****   {
 608              		.loc 1 1602 0 is_stmt 0 discriminator 1
 609 0014 002C     		cmp	r4, #0
 610 0016 F8D1     		bne	.L70
 611              	.L69:
1606:.//FWLIB/src/stm32f10x_flash.c ****   }
1607:.//FWLIB/src/stm32f10x_flash.c ****   if(Timeout == 0x00 )
 612              		.loc 1 1607 0 is_stmt 1
 613 0018 04B9     		cbnz	r4, .L71
1608:.//FWLIB/src/stm32f10x_flash.c ****   {
1609:.//FWLIB/src/stm32f10x_flash.c ****     status = FLASH_TIMEOUT;
 614              		.loc 1 1609 0
 615 001a 0520     		movs	r0, #5
 616              	.LVL32:
 617              	.L71:
1610:.//FWLIB/src/stm32f10x_flash.c ****   }
1611:.//FWLIB/src/stm32f10x_flash.c ****   /* Return the operation status */
1612:.//FWLIB/src/stm32f10x_flash.c ****   return status;
1613:.//FWLIB/src/stm32f10x_flash.c **** }
 618              		.loc 1 1613 0
 619 001c 10BD     		pop	{r4, pc}
 620              		.cfi_endproc
 621              	.LFE55:
 623 001e 00BF     		.section	.text.FLASH_ErasePage,"ax",%progbits
 624              		.align	2
 625              		.global	FLASH_ErasePage
 626              		.thumb
 627              		.thumb_func
 629              	FLASH_ErasePage:
 630              	.LFB36:
 420:.//FWLIB/src/stm32f10x_flash.c ****   FLASH_Status status = FLASH_COMPLETE;
 631              		.loc 1 420 0
 632              		.cfi_startproc
 633              		@ args = 0, pretend = 0, frame = 0
 634              		@ frame_needed = 0, uses_anonymous_args = 0
 635              	.LVL33:
 636 0000 38B5     		push	{r3, r4, r5, lr}
 637              	.LCFI1:
ARM GAS  /var/folders/v3/pl5z0pl12fx5br3g9j_y4ffr0000gn/T//cchvY1ju.s 			page 40


 638              		.cfi_def_cfa_offset 16
 639              		.cfi_offset 3, -16
 640              		.cfi_offset 4, -12
 641              		.cfi_offset 5, -8
 642              		.cfi_offset 14, -4
 643 0002 0546     		mov	r5, r0
 644              	.LVL34:
 464:.//FWLIB/src/stm32f10x_flash.c ****   
 645              		.loc 1 464 0
 646 0004 4FF43020 		mov	r0, #720896
 647              	.LVL35:
 648 0008 FFF7FEFF 		bl	FLASH_WaitForLastOperation
 649              	.LVL36:
 466:.//FWLIB/src/stm32f10x_flash.c ****   { 
 650              		.loc 1 466 0
 651 000c 0428     		cmp	r0, #4
 652 000e 13D1     		bne	.L75
 469:.//FWLIB/src/stm32f10x_flash.c ****     FLASH->AR = Page_Address; 
 653              		.loc 1 469 0
 654 0010 0A4C     		ldr	r4, .L77
 655 0012 2369     		ldr	r3, [r4, #16]
 656 0014 43F00203 		orr	r3, r3, #2
 657 0018 2361     		str	r3, [r4, #16]
 470:.//FWLIB/src/stm32f10x_flash.c ****     FLASH->CR|= CR_STRT_Set;
 658              		.loc 1 470 0
 659 001a 6561     		str	r5, [r4, #20]
 471:.//FWLIB/src/stm32f10x_flash.c ****     
 660              		.loc 1 471 0
 661 001c 2369     		ldr	r3, [r4, #16]
 662 001e 43F04003 		orr	r3, r3, #64
 663 0022 2361     		str	r3, [r4, #16]
 474:.//FWLIB/src/stm32f10x_flash.c ****     
 664              		.loc 1 474 0
 665 0024 4FF43020 		mov	r0, #720896
 666              	.LVL37:
 667 0028 FFF7FEFF 		bl	FLASH_WaitForLastOperation
 668              	.LVL38:
 477:.//FWLIB/src/stm32f10x_flash.c ****   }
 669              		.loc 1 477 0
 670 002c 2369     		ldr	r3, [r4, #16]
 671 002e 23F00203 		bic	r3, r3, #2
 672 0032 DB04     		lsls	r3, r3, #19
 673 0034 DB0C     		lsrs	r3, r3, #19
 674 0036 2361     		str	r3, [r4, #16]
 675              	.L75:
 483:.//FWLIB/src/stm32f10x_flash.c **** 
 676              		.loc 1 483 0
 677 0038 38BD     		pop	{r3, r4, r5, pc}
 678              	.LVL39:
 679              	.L78:
 680 003a 00BF     		.align	2
 681              	.L77:
 682 003c 00200240 		.word	1073881088
 683              		.cfi_endproc
 684              	.LFE36:
 686              		.section	.text.FLASH_EraseAllPages,"ax",%progbits
 687              		.align	2
ARM GAS  /var/folders/v3/pl5z0pl12fx5br3g9j_y4ffr0000gn/T//cchvY1ju.s 			page 41


 688              		.global	FLASH_EraseAllPages
 689              		.thumb
 690              		.thumb_func
 692              	FLASH_EraseAllPages:
 693              	.LFB37:
 493:.//FWLIB/src/stm32f10x_flash.c ****   FLASH_Status status = FLASH_COMPLETE;
 694              		.loc 1 493 0
 695              		.cfi_startproc
 696              		@ args = 0, pretend = 0, frame = 0
 697              		@ frame_needed = 0, uses_anonymous_args = 0
 698 0000 10B5     		push	{r4, lr}
 699              	.LCFI2:
 700              		.cfi_def_cfa_offset 8
 701              		.cfi_offset 4, -8
 702              		.cfi_offset 14, -4
 703              	.LVL40:
 526:.//FWLIB/src/stm32f10x_flash.c ****   if(status == FLASH_COMPLETE)
 704              		.loc 1 526 0
 705 0002 4FF43020 		mov	r0, #720896
 706 0006 FFF7FEFF 		bl	FLASH_WaitForLastOperation
 707              	.LVL41:
 527:.//FWLIB/src/stm32f10x_flash.c ****   {
 708              		.loc 1 527 0
 709 000a 0428     		cmp	r0, #4
 710 000c 12D1     		bne	.L80
 530:.//FWLIB/src/stm32f10x_flash.c ****      FLASH->CR |= CR_STRT_Set;
 711              		.loc 1 530 0
 712 000e 0A4C     		ldr	r4, .L82
 713 0010 2369     		ldr	r3, [r4, #16]
 714 0012 43F00403 		orr	r3, r3, #4
 715 0016 2361     		str	r3, [r4, #16]
 531:.//FWLIB/src/stm32f10x_flash.c ****     
 716              		.loc 1 531 0
 717 0018 2369     		ldr	r3, [r4, #16]
 718 001a 43F04003 		orr	r3, r3, #64
 719 001e 2361     		str	r3, [r4, #16]
 534:.//FWLIB/src/stm32f10x_flash.c **** 
 720              		.loc 1 534 0
 721 0020 4FF43020 		mov	r0, #720896
 722              	.LVL42:
 723 0024 FFF7FEFF 		bl	FLASH_WaitForLastOperation
 724              	.LVL43:
 537:.//FWLIB/src/stm32f10x_flash.c ****   }
 725              		.loc 1 537 0
 726 0028 2369     		ldr	r3, [r4, #16]
 727 002a 23F00403 		bic	r3, r3, #4
 728 002e DB04     		lsls	r3, r3, #19
 729 0030 DB0C     		lsrs	r3, r3, #19
 730 0032 2361     		str	r3, [r4, #16]
 731              	.L80:
 543:.//FWLIB/src/stm32f10x_flash.c **** 
 732              		.loc 1 543 0
 733 0034 10BD     		pop	{r4, pc}
 734              	.L83:
 735 0036 00BF     		.align	2
 736              	.L82:
 737 0038 00200240 		.word	1073881088
ARM GAS  /var/folders/v3/pl5z0pl12fx5br3g9j_y4ffr0000gn/T//cchvY1ju.s 			page 42


 738              		.cfi_endproc
 739              	.LFE37:
 741              		.section	.text.FLASH_EraseOptionBytes,"ax",%progbits
 742              		.align	2
 743              		.global	FLASH_EraseOptionBytes
 744              		.thumb
 745              		.thumb_func
 747              	FLASH_EraseOptionBytes:
 748              	.LFB39:
 617:.//FWLIB/src/stm32f10x_flash.c ****   uint16_t rdptmp = RDP_Key;
 749              		.loc 1 617 0
 750              		.cfi_startproc
 751              		@ args = 0, pretend = 0, frame = 0
 752              		@ frame_needed = 0, uses_anonymous_args = 0
 753 0000 10B5     		push	{r4, lr}
 754              	.LCFI3:
 755              		.cfi_def_cfa_offset 8
 756              		.cfi_offset 4, -8
 757              		.cfi_offset 14, -4
 758              	.LVL44:
 623:.//FWLIB/src/stm32f10x_flash.c ****   {
 759              		.loc 1 623 0
 760 0002 FFF7FEFF 		bl	FLASH_GetReadOutProtectionStatus
 761              	.LVL45:
 762 0006 08B9     		cbnz	r0, .L88
 618:.//FWLIB/src/stm32f10x_flash.c **** 
 763              		.loc 1 618 0
 764 0008 A524     		movs	r4, #165
 765 000a 00E0     		b	.L85
 766              	.L88:
 625:.//FWLIB/src/stm32f10x_flash.c ****   }
 767              		.loc 1 625 0
 768 000c 0024     		movs	r4, #0
 769              	.L85:
 770              	.LVL46:
 629:.//FWLIB/src/stm32f10x_flash.c ****   if(status == FLASH_COMPLETE)
 771              		.loc 1 629 0
 772 000e 4FF43020 		mov	r0, #720896
 773 0012 FFF7FEFF 		bl	FLASH_WaitForLastOperation
 774              	.LVL47:
 630:.//FWLIB/src/stm32f10x_flash.c ****   {
 775              		.loc 1 630 0
 776 0016 0428     		cmp	r0, #4
 777 0018 37D1     		bne	.L86
 633:.//FWLIB/src/stm32f10x_flash.c ****     FLASH->OPTKEYR = FLASH_KEY2;
 778              		.loc 1 633 0
 779 001a 1C4B     		ldr	r3, .L90
 780 001c 1C4A     		ldr	r2, .L90+4
 781 001e 9A60     		str	r2, [r3, #8]
 634:.//FWLIB/src/stm32f10x_flash.c ****     
 782              		.loc 1 634 0
 783 0020 02F18832 		add	r2, r2, #-2004318072
 784 0024 9A60     		str	r2, [r3, #8]
 637:.//FWLIB/src/stm32f10x_flash.c ****     FLASH->CR |= CR_STRT_Set;
 785              		.loc 1 637 0
 786 0026 1A69     		ldr	r2, [r3, #16]
 787 0028 42F02002 		orr	r2, r2, #32
ARM GAS  /var/folders/v3/pl5z0pl12fx5br3g9j_y4ffr0000gn/T//cchvY1ju.s 			page 43


 788 002c 1A61     		str	r2, [r3, #16]
 638:.//FWLIB/src/stm32f10x_flash.c ****     /* Wait for last operation to be completed */
 789              		.loc 1 638 0
 790 002e 1A69     		ldr	r2, [r3, #16]
 791 0030 42F04002 		orr	r2, r2, #64
 792 0034 1A61     		str	r2, [r3, #16]
 640:.//FWLIB/src/stm32f10x_flash.c ****     
 793              		.loc 1 640 0
 794 0036 4FF43020 		mov	r0, #720896
 795              	.LVL48:
 796 003a FFF7FEFF 		bl	FLASH_WaitForLastOperation
 797              	.LVL49:
 642:.//FWLIB/src/stm32f10x_flash.c ****     {
 798              		.loc 1 642 0
 799 003e 0428     		cmp	r0, #4
 800 0040 1AD1     		bne	.L87
 645:.//FWLIB/src/stm32f10x_flash.c ****        
 801              		.loc 1 645 0
 802 0042 124B     		ldr	r3, .L90
 803 0044 1A69     		ldr	r2, [r3, #16]
 804 0046 22F02002 		bic	r2, r2, #32
 805 004a D204     		lsls	r2, r2, #19
 806 004c D20C     		lsrs	r2, r2, #19
 807 004e 1A61     		str	r2, [r3, #16]
 648:.//FWLIB/src/stm32f10x_flash.c ****       /* Restore the last read protection Option Byte value */
 808              		.loc 1 648 0
 809 0050 1A69     		ldr	r2, [r3, #16]
 810 0052 42F01002 		orr	r2, r2, #16
 811 0056 1A61     		str	r2, [r3, #16]
 650:.//FWLIB/src/stm32f10x_flash.c ****       /* Wait for last operation to be completed */
 812              		.loc 1 650 0
 813 0058 0E4B     		ldr	r3, .L90+8
 814 005a 1C80     		strh	r4, [r3]	@ movhi
 652:.//FWLIB/src/stm32f10x_flash.c ****  
 815              		.loc 1 652 0
 816 005c 4FF40050 		mov	r0, #8192
 817              	.LVL50:
 818 0060 FFF7FEFF 		bl	FLASH_WaitForLastOperation
 819              	.LVL51:
 654:.//FWLIB/src/stm32f10x_flash.c ****       {
 820              		.loc 1 654 0
 821 0064 0528     		cmp	r0, #5
 822 0066 10D0     		beq	.L86
 657:.//FWLIB/src/stm32f10x_flash.c ****       }
 823              		.loc 1 657 0
 824 0068 084A     		ldr	r2, .L90
 825 006a 1369     		ldr	r3, [r2, #16]
 826 006c 23F01003 		bic	r3, r3, #16
 827 0070 DB04     		lsls	r3, r3, #19
 828 0072 DB0C     		lsrs	r3, r3, #19
 829 0074 1361     		str	r3, [r2, #16]
 830 0076 10BD     		pop	{r4, pc}
 831              	.LVL52:
 832              	.L87:
 662:.//FWLIB/src/stm32f10x_flash.c ****       {
 833              		.loc 1 662 0
 834 0078 0528     		cmp	r0, #5
ARM GAS  /var/folders/v3/pl5z0pl12fx5br3g9j_y4ffr0000gn/T//cchvY1ju.s 			page 44


 835 007a 06D0     		beq	.L86
 665:.//FWLIB/src/stm32f10x_flash.c ****       }
 836              		.loc 1 665 0
 837 007c 034A     		ldr	r2, .L90
 838 007e 1369     		ldr	r3, [r2, #16]
 839 0080 23F01003 		bic	r3, r3, #16
 840 0084 DB04     		lsls	r3, r3, #19
 841 0086 DB0C     		lsrs	r3, r3, #19
 842 0088 1361     		str	r3, [r2, #16]
 843              	.L86:
 671:.//FWLIB/src/stm32f10x_flash.c **** 
 844              		.loc 1 671 0
 845 008a 10BD     		pop	{r4, pc}
 846              	.LVL53:
 847              	.L91:
 848              		.align	2
 849              	.L90:
 850 008c 00200240 		.word	1073881088
 851 0090 23016745 		.word	1164378403
 852 0094 00F8FF1F 		.word	536868864
 853              		.cfi_endproc
 854              	.LFE39:
 856              		.section	.text.FLASH_ProgramWord,"ax",%progbits
 857              		.align	2
 858              		.global	FLASH_ProgramWord
 859              		.thumb
 860              		.thumb_func
 862              	FLASH_ProgramWord:
 863              	.LFB40:
 682:.//FWLIB/src/stm32f10x_flash.c ****   FLASH_Status status = FLASH_COMPLETE;
 864              		.loc 1 682 0
 865              		.cfi_startproc
 866              		@ args = 0, pretend = 0, frame = 8
 867              		@ frame_needed = 0, uses_anonymous_args = 0
 868              	.LVL54:
 869 0000 30B5     		push	{r4, r5, lr}
 870              	.LCFI4:
 871              		.cfi_def_cfa_offset 12
 872              		.cfi_offset 4, -12
 873              		.cfi_offset 5, -8
 874              		.cfi_offset 14, -4
 875 0002 83B0     		sub	sp, sp, #12
 876              	.LCFI5:
 877              		.cfi_def_cfa_offset 24
 878 0004 0546     		mov	r5, r0
 879 0006 0C46     		mov	r4, r1
 880              	.LVL55:
 684:.//FWLIB/src/stm32f10x_flash.c **** 
 881              		.loc 1 684 0
 882 0008 0023     		movs	r3, #0
 883 000a 0193     		str	r3, [sp, #4]
 812:.//FWLIB/src/stm32f10x_flash.c ****   
 884              		.loc 1 812 0
 885 000c 4FF40050 		mov	r0, #8192
 886              	.LVL56:
 887 0010 FFF7FEFF 		bl	FLASH_WaitForLastOperation
 888              	.LVL57:
ARM GAS  /var/folders/v3/pl5z0pl12fx5br3g9j_y4ffr0000gn/T//cchvY1ju.s 			page 45


 814:.//FWLIB/src/stm32f10x_flash.c ****   {
 889              		.loc 1 814 0
 890 0014 0428     		cmp	r0, #4
 891 0016 24D1     		bne	.L93
 818:.//FWLIB/src/stm32f10x_flash.c ****   
 892              		.loc 1 818 0
 893 0018 134A     		ldr	r2, .L96
 894 001a 1369     		ldr	r3, [r2, #16]
 895 001c 43F00103 		orr	r3, r3, #1
 896 0020 1361     		str	r3, [r2, #16]
 820:.//FWLIB/src/stm32f10x_flash.c ****     /* Wait for last operation to be completed */
 897              		.loc 1 820 0
 898 0022 A3B2     		uxth	r3, r4
 899 0024 2B80     		strh	r3, [r5]	@ movhi
 822:.//FWLIB/src/stm32f10x_flash.c ****  
 900              		.loc 1 822 0
 901 0026 4FF40050 		mov	r0, #8192
 902              	.LVL58:
 903 002a FFF7FEFF 		bl	FLASH_WaitForLastOperation
 904              	.LVL59:
 824:.//FWLIB/src/stm32f10x_flash.c ****     {
 905              		.loc 1 824 0
 906 002e 0428     		cmp	r0, #4
 907 0030 10D1     		bne	.L94
 828:.//FWLIB/src/stm32f10x_flash.c **** 
 908              		.loc 1 828 0
 909 0032 0235     		adds	r5, r5, #2
 910              	.LVL60:
 911 0034 0195     		str	r5, [sp, #4]
 830:.//FWLIB/src/stm32f10x_flash.c ****     
 912              		.loc 1 830 0
 913 0036 019B     		ldr	r3, [sp, #4]
 914 0038 240C     		lsrs	r4, r4, #16
 915              	.LVL61:
 916 003a 1C80     		strh	r4, [r3]	@ movhi
 833:.//FWLIB/src/stm32f10x_flash.c ****         
 917              		.loc 1 833 0
 918 003c 4FF40050 		mov	r0, #8192
 919              	.LVL62:
 920 0040 FFF7FEFF 		bl	FLASH_WaitForLastOperation
 921              	.LVL63:
 836:.//FWLIB/src/stm32f10x_flash.c ****     }
 922              		.loc 1 836 0
 923 0044 084A     		ldr	r2, .L96
 924 0046 1369     		ldr	r3, [r2, #16]
 925 0048 23F00103 		bic	r3, r3, #1
 926 004c DB04     		lsls	r3, r3, #19
 927 004e DB0C     		lsrs	r3, r3, #19
 928 0050 1361     		str	r3, [r2, #16]
 929 0052 06E0     		b	.L93
 930              	.LVL64:
 931              	.L94:
 841:.//FWLIB/src/stm32f10x_flash.c ****     }
 932              		.loc 1 841 0
 933 0054 044A     		ldr	r2, .L96
 934 0056 1369     		ldr	r3, [r2, #16]
 935 0058 23F00103 		bic	r3, r3, #1
ARM GAS  /var/folders/v3/pl5z0pl12fx5br3g9j_y4ffr0000gn/T//cchvY1ju.s 			page 46


 936 005c DB04     		lsls	r3, r3, #19
 937 005e DB0C     		lsrs	r3, r3, #19
 938 0060 1361     		str	r3, [r2, #16]
 939              	.LVL65:
 940              	.L93:
 848:.//FWLIB/src/stm32f10x_flash.c **** 
 941              		.loc 1 848 0
 942 0062 03B0     		add	sp, sp, #12
 943              	.LCFI6:
 944              		.cfi_def_cfa_offset 12
 945              		@ sp needed
 946 0064 30BD     		pop	{r4, r5, pc}
 947              	.L97:
 948 0066 00BF     		.align	2
 949              	.L96:
 950 0068 00200240 		.word	1073881088
 951              		.cfi_endproc
 952              	.LFE40:
 954              		.section	.text.FLASH_ProgramHalfWord,"ax",%progbits
 955              		.align	2
 956              		.global	FLASH_ProgramHalfWord
 957              		.thumb
 958              		.thumb_func
 960              	FLASH_ProgramHalfWord:
 961              	.LFB41:
 859:.//FWLIB/src/stm32f10x_flash.c ****   FLASH_Status status = FLASH_COMPLETE;
 962              		.loc 1 859 0
 963              		.cfi_startproc
 964              		@ args = 0, pretend = 0, frame = 0
 965              		@ frame_needed = 0, uses_anonymous_args = 0
 966              	.LVL66:
 967 0000 70B5     		push	{r4, r5, r6, lr}
 968              	.LCFI7:
 969              		.cfi_def_cfa_offset 16
 970              		.cfi_offset 4, -16
 971              		.cfi_offset 5, -12
 972              		.cfi_offset 6, -8
 973              		.cfi_offset 14, -4
 974 0002 0446     		mov	r4, r0
 975 0004 0D46     		mov	r5, r1
 976              	.LVL67:
 900:.//FWLIB/src/stm32f10x_flash.c ****   
 977              		.loc 1 900 0
 978 0006 4FF40050 		mov	r0, #8192
 979              	.LVL68:
 980 000a FFF7FEFF 		bl	FLASH_WaitForLastOperation
 981              	.LVL69:
 902:.//FWLIB/src/stm32f10x_flash.c ****   {
 982              		.loc 1 902 0
 983 000e 0428     		cmp	r0, #4
 984 0010 0FD1     		bne	.L99
 905:.//FWLIB/src/stm32f10x_flash.c ****   
 985              		.loc 1 905 0
 986 0012 084E     		ldr	r6, .L101
 987 0014 3369     		ldr	r3, [r6, #16]
 988 0016 43F00103 		orr	r3, r3, #1
 989 001a 3361     		str	r3, [r6, #16]
ARM GAS  /var/folders/v3/pl5z0pl12fx5br3g9j_y4ffr0000gn/T//cchvY1ju.s 			page 47


 907:.//FWLIB/src/stm32f10x_flash.c ****     /* Wait for last operation to be completed */
 990              		.loc 1 907 0
 991 001c 2580     		strh	r5, [r4]	@ movhi
 909:.//FWLIB/src/stm32f10x_flash.c ****     
 992              		.loc 1 909 0
 993 001e 4FF40050 		mov	r0, #8192
 994              	.LVL70:
 995 0022 FFF7FEFF 		bl	FLASH_WaitForLastOperation
 996              	.LVL71:
 912:.//FWLIB/src/stm32f10x_flash.c ****   } 
 997              		.loc 1 912 0
 998 0026 3369     		ldr	r3, [r6, #16]
 999 0028 23F00103 		bic	r3, r3, #1
 1000 002c DB04     		lsls	r3, r3, #19
 1001 002e DB0C     		lsrs	r3, r3, #19
 1002 0030 3361     		str	r3, [r6, #16]
 1003              	.L99:
 918:.//FWLIB/src/stm32f10x_flash.c **** 
 1004              		.loc 1 918 0
 1005 0032 70BD     		pop	{r4, r5, r6, pc}
 1006              	.LVL72:
 1007              	.L102:
 1008              		.align	2
 1009              	.L101:
 1010 0034 00200240 		.word	1073881088
 1011              		.cfi_endproc
 1012              	.LFE41:
 1014              		.section	.text.FLASH_ProgramOptionByteData,"ax",%progbits
 1015              		.align	2
 1016              		.global	FLASH_ProgramOptionByteData
 1017              		.thumb
 1018              		.thumb_func
 1020              	FLASH_ProgramOptionByteData:
 1021              	.LFB42:
 930:.//FWLIB/src/stm32f10x_flash.c ****   FLASH_Status status = FLASH_COMPLETE;
 1022              		.loc 1 930 0
 1023              		.cfi_startproc
 1024              		@ args = 0, pretend = 0, frame = 0
 1025              		@ frame_needed = 0, uses_anonymous_args = 0
 1026              	.LVL73:
 1027 0000 38B5     		push	{r3, r4, r5, lr}
 1028              	.LCFI8:
 1029              		.cfi_def_cfa_offset 16
 1030              		.cfi_offset 3, -16
 1031              		.cfi_offset 4, -12
 1032              		.cfi_offset 5, -8
 1033              		.cfi_offset 14, -4
 1034 0002 0546     		mov	r5, r0
 1035 0004 0C46     		mov	r4, r1
 1036              	.LVL74:
 934:.//FWLIB/src/stm32f10x_flash.c **** 
 1037              		.loc 1 934 0
 1038 0006 4FF40050 		mov	r0, #8192
 1039              	.LVL75:
 1040 000a FFF7FEFF 		bl	FLASH_WaitForLastOperation
 1041              	.LVL76:
 936:.//FWLIB/src/stm32f10x_flash.c ****   {
ARM GAS  /var/folders/v3/pl5z0pl12fx5br3g9j_y4ffr0000gn/T//cchvY1ju.s 			page 48


 1042              		.loc 1 936 0
 1043 000e 0428     		cmp	r0, #4
 1044 0010 18D1     		bne	.L104
 939:.//FWLIB/src/stm32f10x_flash.c ****     FLASH->OPTKEYR = FLASH_KEY2;
 1045              		.loc 1 939 0
 1046 0012 0D4B     		ldr	r3, .L106
 1047 0014 0D4A     		ldr	r2, .L106+4
 1048 0016 9A60     		str	r2, [r3, #8]
 940:.//FWLIB/src/stm32f10x_flash.c ****     /* Enables the Option Bytes Programming operation */
 1049              		.loc 1 940 0
 1050 0018 02F18832 		add	r2, r2, #-2004318072
 1051 001c 9A60     		str	r2, [r3, #8]
 942:.//FWLIB/src/stm32f10x_flash.c ****     *(__IO uint16_t*)Address = Data;
 1052              		.loc 1 942 0
 1053 001e 1A69     		ldr	r2, [r3, #16]
 1054 0020 42F01002 		orr	r2, r2, #16
 1055 0024 1A61     		str	r2, [r3, #16]
 943:.//FWLIB/src/stm32f10x_flash.c ****     
 1056              		.loc 1 943 0
 1057 0026 A4B2     		uxth	r4, r4
 1058 0028 2C80     		strh	r4, [r5]	@ movhi
 946:.//FWLIB/src/stm32f10x_flash.c ****     if(status != FLASH_TIMEOUT)
 1059              		.loc 1 946 0
 1060 002a 4FF40050 		mov	r0, #8192
 1061              	.LVL77:
 1062 002e FFF7FEFF 		bl	FLASH_WaitForLastOperation
 1063              	.LVL78:
 947:.//FWLIB/src/stm32f10x_flash.c ****     {
 1064              		.loc 1 947 0
 1065 0032 0528     		cmp	r0, #5
 1066 0034 06D0     		beq	.L104
 950:.//FWLIB/src/stm32f10x_flash.c ****     }
 1067              		.loc 1 950 0
 1068 0036 044A     		ldr	r2, .L106
 1069 0038 1369     		ldr	r3, [r2, #16]
 1070 003a 23F01003 		bic	r3, r3, #16
 1071 003e DB04     		lsls	r3, r3, #19
 1072 0040 DB0C     		lsrs	r3, r3, #19
 1073 0042 1361     		str	r3, [r2, #16]
 1074              	.L104:
 955:.//FWLIB/src/stm32f10x_flash.c **** 
 1075              		.loc 1 955 0
 1076 0044 38BD     		pop	{r3, r4, r5, pc}
 1077              	.LVL79:
 1078              	.L107:
 1079 0046 00BF     		.align	2
 1080              	.L106:
 1081 0048 00200240 		.word	1073881088
 1082 004c 23016745 		.word	1164378403
 1083              		.cfi_endproc
 1084              	.LFE42:
 1086              		.section	.text.FLASH_EnableWriteProtection,"ax",%progbits
 1087              		.align	2
 1088              		.global	FLASH_EnableWriteProtection
 1089              		.thumb
 1090              		.thumb_func
 1092              	FLASH_EnableWriteProtection:
ARM GAS  /var/folders/v3/pl5z0pl12fx5br3g9j_y4ffr0000gn/T//cchvY1ju.s 			page 49


 1093              	.LFB43:
 976:.//FWLIB/src/stm32f10x_flash.c ****   uint16_t WRP0_Data = 0xFFFF, WRP1_Data = 0xFFFF, WRP2_Data = 0xFFFF, WRP3_Data = 0xFFFF;
 1094              		.loc 1 976 0
 1095              		.cfi_startproc
 1096              		@ args = 0, pretend = 0, frame = 0
 1097              		@ frame_needed = 0, uses_anonymous_args = 0
 1098              	.LVL80:
 1099 0000 F8B5     		push	{r3, r4, r5, r6, r7, lr}
 1100              	.LCFI9:
 1101              		.cfi_def_cfa_offset 24
 1102              		.cfi_offset 3, -24
 1103              		.cfi_offset 4, -20
 1104              		.cfi_offset 5, -16
 1105              		.cfi_offset 6, -12
 1106              		.cfi_offset 7, -8
 1107              		.cfi_offset 14, -4
 1108              	.LVL81:
 984:.//FWLIB/src/stm32f10x_flash.c ****   WRP0_Data = (uint16_t)(FLASH_Pages & WRP0_Mask);
 1109              		.loc 1 984 0
 1110 0002 C043     		mvns	r0, r0
 1111              	.LVL82:
 985:.//FWLIB/src/stm32f10x_flash.c ****   WRP1_Data = (uint16_t)((FLASH_Pages & WRP1_Mask) >> 8);
 1112              		.loc 1 985 0
 1113 0004 C5B2     		uxtb	r5, r0
 1114              	.LVL83:
 986:.//FWLIB/src/stm32f10x_flash.c ****   WRP2_Data = (uint16_t)((FLASH_Pages & WRP2_Mask) >> 16);
 1115              		.loc 1 986 0
 1116 0006 C0F30727 		ubfx	r7, r0, #8, #8
 1117              	.LVL84:
 987:.//FWLIB/src/stm32f10x_flash.c ****   WRP3_Data = (uint16_t)((FLASH_Pages & WRP3_Mask) >> 24);
 1118              		.loc 1 987 0
 1119 000a C0F30746 		ubfx	r6, r0, #16, #8
 1120              	.LVL85:
 988:.//FWLIB/src/stm32f10x_flash.c ****   
 1121              		.loc 1 988 0
 1122 000e 040E     		lsrs	r4, r0, #24
 1123              	.LVL86:
 991:.//FWLIB/src/stm32f10x_flash.c ****   
 1124              		.loc 1 991 0
 1125 0010 4FF40050 		mov	r0, #8192
 1126              	.LVL87:
 1127 0014 FFF7FEFF 		bl	FLASH_WaitForLastOperation
 1128              	.LVL88:
 993:.//FWLIB/src/stm32f10x_flash.c ****   {
 1129              		.loc 1 993 0
 1130 0018 0428     		cmp	r0, #4
 1131 001a 38D1     		bne	.L109
 996:.//FWLIB/src/stm32f10x_flash.c ****     FLASH->OPTKEYR = FLASH_KEY2;
 1132              		.loc 1 996 0
 1133 001c 1C4B     		ldr	r3, .L115
 1134 001e 1D4A     		ldr	r2, .L115+4
 1135 0020 9A60     		str	r2, [r3, #8]
 997:.//FWLIB/src/stm32f10x_flash.c ****     FLASH->CR |= CR_OPTPG_Set;
 1136              		.loc 1 997 0
 1137 0022 02F18832 		add	r2, r2, #-2004318072
 1138 0026 9A60     		str	r2, [r3, #8]
 998:.//FWLIB/src/stm32f10x_flash.c ****     if(WRP0_Data != 0xFF)
ARM GAS  /var/folders/v3/pl5z0pl12fx5br3g9j_y4ffr0000gn/T//cchvY1ju.s 			page 50


 1139              		.loc 1 998 0
 1140 0028 1A69     		ldr	r2, [r3, #16]
 1141 002a 42F01002 		orr	r2, r2, #16
 1142 002e 1A61     		str	r2, [r3, #16]
 999:.//FWLIB/src/stm32f10x_flash.c ****     {
 1143              		.loc 1 999 0
 1144 0030 FF2D     		cmp	r5, #255
 1145 0032 05D0     		beq	.L110
1001:.//FWLIB/src/stm32f10x_flash.c ****       
 1146              		.loc 1 1001 0
 1147 0034 184B     		ldr	r3, .L115+8
 1148 0036 1D81     		strh	r5, [r3, #8]	@ movhi
1004:.//FWLIB/src/stm32f10x_flash.c ****     }
 1149              		.loc 1 1004 0
 1150 0038 4FF40050 		mov	r0, #8192
 1151              	.LVL89:
 1152 003c FFF7FEFF 		bl	FLASH_WaitForLastOperation
 1153              	.LVL90:
 1154              	.L110:
1006:.//FWLIB/src/stm32f10x_flash.c ****     {
 1155              		.loc 1 1006 0
 1156 0040 0428     		cmp	r0, #4
 1157 0042 07D1     		bne	.L111
1006:.//FWLIB/src/stm32f10x_flash.c ****     {
 1158              		.loc 1 1006 0 is_stmt 0 discriminator 1
 1159 0044 FF2F     		cmp	r7, #255
 1160 0046 05D0     		beq	.L111
1008:.//FWLIB/src/stm32f10x_flash.c ****       
 1161              		.loc 1 1008 0 is_stmt 1
 1162 0048 134B     		ldr	r3, .L115+8
 1163 004a 5F81     		strh	r7, [r3, #10]	@ movhi
1011:.//FWLIB/src/stm32f10x_flash.c ****     }
 1164              		.loc 1 1011 0
 1165 004c 4FF40050 		mov	r0, #8192
 1166              	.LVL91:
 1167 0050 FFF7FEFF 		bl	FLASH_WaitForLastOperation
 1168              	.LVL92:
 1169              	.L111:
1013:.//FWLIB/src/stm32f10x_flash.c ****     {
 1170              		.loc 1 1013 0
 1171 0054 0428     		cmp	r0, #4
 1172 0056 07D1     		bne	.L112
1013:.//FWLIB/src/stm32f10x_flash.c ****     {
 1173              		.loc 1 1013 0 is_stmt 0 discriminator 1
 1174 0058 FF2E     		cmp	r6, #255
 1175 005a 05D0     		beq	.L112
1015:.//FWLIB/src/stm32f10x_flash.c ****       
 1176              		.loc 1 1015 0 is_stmt 1
 1177 005c 0E4B     		ldr	r3, .L115+8
 1178 005e 9E81     		strh	r6, [r3, #12]	@ movhi
1018:.//FWLIB/src/stm32f10x_flash.c ****     }
 1179              		.loc 1 1018 0
 1180 0060 4FF40050 		mov	r0, #8192
 1181              	.LVL93:
 1182 0064 FFF7FEFF 		bl	FLASH_WaitForLastOperation
 1183              	.LVL94:
 1184              	.L112:
ARM GAS  /var/folders/v3/pl5z0pl12fx5br3g9j_y4ffr0000gn/T//cchvY1ju.s 			page 51


1021:.//FWLIB/src/stm32f10x_flash.c ****     {
 1185              		.loc 1 1021 0
 1186 0068 0428     		cmp	r0, #4
 1187 006a 07D1     		bne	.L113
1021:.//FWLIB/src/stm32f10x_flash.c ****     {
 1188              		.loc 1 1021 0 is_stmt 0 discriminator 1
 1189 006c FF2C     		cmp	r4, #255
 1190 006e 05D0     		beq	.L113
1023:.//FWLIB/src/stm32f10x_flash.c ****      
 1191              		.loc 1 1023 0 is_stmt 1
 1192 0070 094B     		ldr	r3, .L115+8
 1193 0072 DC81     		strh	r4, [r3, #14]	@ movhi
1026:.//FWLIB/src/stm32f10x_flash.c ****     }
 1194              		.loc 1 1026 0
 1195 0074 4FF40050 		mov	r0, #8192
 1196              	.LVL95:
 1197 0078 FFF7FEFF 		bl	FLASH_WaitForLastOperation
 1198              	.LVL96:
 1199              	.L113:
1029:.//FWLIB/src/stm32f10x_flash.c ****     {
 1200              		.loc 1 1029 0
 1201 007c 0528     		cmp	r0, #5
 1202 007e 06D0     		beq	.L109
1032:.//FWLIB/src/stm32f10x_flash.c ****     }
 1203              		.loc 1 1032 0
 1204 0080 034A     		ldr	r2, .L115
 1205 0082 1369     		ldr	r3, [r2, #16]
 1206 0084 23F01003 		bic	r3, r3, #16
 1207 0088 DB04     		lsls	r3, r3, #19
 1208 008a DB0C     		lsrs	r3, r3, #19
 1209 008c 1361     		str	r3, [r2, #16]
 1210              	.L109:
1037:.//FWLIB/src/stm32f10x_flash.c **** 
 1211              		.loc 1 1037 0
 1212 008e F8BD     		pop	{r3, r4, r5, r6, r7, pc}
 1213              	.LVL97:
 1214              	.L116:
 1215              		.align	2
 1216              	.L115:
 1217 0090 00200240 		.word	1073881088
 1218 0094 23016745 		.word	1164378403
 1219 0098 00F8FF1F 		.word	536868864
 1220              		.cfi_endproc
 1221              	.LFE43:
 1223              		.section	.text.FLASH_ReadOutProtection,"ax",%progbits
 1224              		.align	2
 1225              		.global	FLASH_ReadOutProtection
 1226              		.thumb
 1227              		.thumb_func
 1229              	FLASH_ReadOutProtection:
 1230              	.LFB44:
1050:.//FWLIB/src/stm32f10x_flash.c ****   FLASH_Status status = FLASH_COMPLETE;
 1231              		.loc 1 1050 0
 1232              		.cfi_startproc
 1233              		@ args = 0, pretend = 0, frame = 0
 1234              		@ frame_needed = 0, uses_anonymous_args = 0
 1235              	.LVL98:
ARM GAS  /var/folders/v3/pl5z0pl12fx5br3g9j_y4ffr0000gn/T//cchvY1ju.s 			page 52


 1236 0000 10B5     		push	{r4, lr}
 1237              	.LCFI10:
 1238              		.cfi_def_cfa_offset 8
 1239              		.cfi_offset 4, -8
 1240              		.cfi_offset 14, -4
 1241 0002 0446     		mov	r4, r0
 1242              	.LVL99:
1054:.//FWLIB/src/stm32f10x_flash.c ****   if(status == FLASH_COMPLETE)
 1243              		.loc 1 1054 0
 1244 0004 4FF43020 		mov	r0, #720896
 1245              	.LVL100:
 1246 0008 FFF7FEFF 		bl	FLASH_WaitForLastOperation
 1247              	.LVL101:
1055:.//FWLIB/src/stm32f10x_flash.c ****   {
 1248              		.loc 1 1055 0
 1249 000c 0428     		cmp	r0, #4
 1250 000e 3DD1     		bne	.L118
1058:.//FWLIB/src/stm32f10x_flash.c ****     FLASH->OPTKEYR = FLASH_KEY2;
 1251              		.loc 1 1058 0
 1252 0010 1F4B     		ldr	r3, .L123
 1253 0012 204A     		ldr	r2, .L123+4
 1254 0014 9A60     		str	r2, [r3, #8]
1059:.//FWLIB/src/stm32f10x_flash.c ****     FLASH->CR |= CR_OPTER_Set;
 1255              		.loc 1 1059 0
 1256 0016 02F18832 		add	r2, r2, #-2004318072
 1257 001a 9A60     		str	r2, [r3, #8]
1060:.//FWLIB/src/stm32f10x_flash.c ****     FLASH->CR |= CR_STRT_Set;
 1258              		.loc 1 1060 0
 1259 001c 1A69     		ldr	r2, [r3, #16]
 1260 001e 42F02002 		orr	r2, r2, #32
 1261 0022 1A61     		str	r2, [r3, #16]
1061:.//FWLIB/src/stm32f10x_flash.c ****     /* Wait for last operation to be completed */
 1262              		.loc 1 1061 0
 1263 0024 1A69     		ldr	r2, [r3, #16]
 1264 0026 42F04002 		orr	r2, r2, #64
 1265 002a 1A61     		str	r2, [r3, #16]
1063:.//FWLIB/src/stm32f10x_flash.c ****     if(status == FLASH_COMPLETE)
 1266              		.loc 1 1063 0
 1267 002c 4FF43020 		mov	r0, #720896
 1268              	.LVL102:
 1269 0030 FFF7FEFF 		bl	FLASH_WaitForLastOperation
 1270              	.LVL103:
1064:.//FWLIB/src/stm32f10x_flash.c ****     {
 1271              		.loc 1 1064 0
 1272 0034 0428     		cmp	r0, #4
 1273 0036 20D1     		bne	.L119
1067:.//FWLIB/src/stm32f10x_flash.c ****       /* Enable the Option Bytes Programming operation */
 1274              		.loc 1 1067 0
 1275 0038 154B     		ldr	r3, .L123
 1276 003a 1A69     		ldr	r2, [r3, #16]
 1277 003c 22F02002 		bic	r2, r2, #32
 1278 0040 D204     		lsls	r2, r2, #19
 1279 0042 D20C     		lsrs	r2, r2, #19
 1280 0044 1A61     		str	r2, [r3, #16]
1069:.//FWLIB/src/stm32f10x_flash.c ****       if(NewState != DISABLE)
 1281              		.loc 1 1069 0
 1282 0046 1A69     		ldr	r2, [r3, #16]
ARM GAS  /var/folders/v3/pl5z0pl12fx5br3g9j_y4ffr0000gn/T//cchvY1ju.s 			page 53


 1283 0048 42F01002 		orr	r2, r2, #16
 1284 004c 1A61     		str	r2, [r3, #16]
1070:.//FWLIB/src/stm32f10x_flash.c ****       {
 1285              		.loc 1 1070 0
 1286 004e 1CB1     		cbz	r4, .L120
1072:.//FWLIB/src/stm32f10x_flash.c ****       }
 1287              		.loc 1 1072 0
 1288 0050 0022     		movs	r2, #0
 1289 0052 114B     		ldr	r3, .L123+8
 1290 0054 1A80     		strh	r2, [r3]	@ movhi
 1291 0056 02E0     		b	.L121
 1292              	.L120:
1076:.//FWLIB/src/stm32f10x_flash.c ****       }
 1293              		.loc 1 1076 0
 1294 0058 A522     		movs	r2, #165
 1295 005a 0F4B     		ldr	r3, .L123+8
 1296 005c 1A80     		strh	r2, [r3]	@ movhi
 1297              	.L121:
1079:.//FWLIB/src/stm32f10x_flash.c ****     
 1298              		.loc 1 1079 0
 1299 005e 4FF43020 		mov	r0, #720896
 1300              	.LVL104:
 1301 0062 FFF7FEFF 		bl	FLASH_WaitForLastOperation
 1302              	.LVL105:
1081:.//FWLIB/src/stm32f10x_flash.c ****       {
 1303              		.loc 1 1081 0
 1304 0066 0528     		cmp	r0, #5
 1305 0068 10D0     		beq	.L118
1084:.//FWLIB/src/stm32f10x_flash.c ****       }
 1306              		.loc 1 1084 0
 1307 006a 094A     		ldr	r2, .L123
 1308 006c 1369     		ldr	r3, [r2, #16]
 1309 006e 23F01003 		bic	r3, r3, #16
 1310 0072 DB04     		lsls	r3, r3, #19
 1311 0074 DB0C     		lsrs	r3, r3, #19
 1312 0076 1361     		str	r3, [r2, #16]
 1313 0078 10BD     		pop	{r4, pc}
 1314              	.L119:
1089:.//FWLIB/src/stm32f10x_flash.c ****       {
 1315              		.loc 1 1089 0
 1316 007a 0528     		cmp	r0, #5
 1317 007c 06D0     		beq	.L118
1092:.//FWLIB/src/stm32f10x_flash.c ****       }
 1318              		.loc 1 1092 0
 1319 007e 044A     		ldr	r2, .L123
 1320 0080 1369     		ldr	r3, [r2, #16]
 1321 0082 23F02003 		bic	r3, r3, #32
 1322 0086 DB04     		lsls	r3, r3, #19
 1323 0088 DB0C     		lsrs	r3, r3, #19
 1324 008a 1361     		str	r3, [r2, #16]
 1325              	.L118:
1098:.//FWLIB/src/stm32f10x_flash.c **** 
 1326              		.loc 1 1098 0
 1327 008c 10BD     		pop	{r4, pc}
 1328              	.L124:
 1329 008e 00BF     		.align	2
 1330              	.L123:
ARM GAS  /var/folders/v3/pl5z0pl12fx5br3g9j_y4ffr0000gn/T//cchvY1ju.s 			page 54


 1331 0090 00200240 		.word	1073881088
 1332 0094 23016745 		.word	1164378403
 1333 0098 00F8FF1F 		.word	536868864
 1334              		.cfi_endproc
 1335              	.LFE44:
 1337              		.section	.text.FLASH_UserOptionByteConfig,"ax",%progbits
 1338              		.align	2
 1339              		.global	FLASH_UserOptionByteConfig
 1340              		.thumb
 1341              		.thumb_func
 1343              	FLASH_UserOptionByteConfig:
 1344              	.LFB45:
1119:.//FWLIB/src/stm32f10x_flash.c ****   FLASH_Status status = FLASH_COMPLETE; 
 1345              		.loc 1 1119 0
 1346              		.cfi_startproc
 1347              		@ args = 0, pretend = 0, frame = 0
 1348              		@ frame_needed = 0, uses_anonymous_args = 0
 1349              	.LVL106:
 1350 0000 70B5     		push	{r4, r5, r6, lr}
 1351              	.LCFI11:
 1352              		.cfi_def_cfa_offset 16
 1353              		.cfi_offset 4, -16
 1354              		.cfi_offset 5, -12
 1355              		.cfi_offset 6, -8
 1356              		.cfi_offset 14, -4
 1357 0002 0546     		mov	r5, r0
 1358 0004 0C46     		mov	r4, r1
 1359 0006 1646     		mov	r6, r2
 1360              	.LVL107:
1128:.//FWLIB/src/stm32f10x_flash.c ****   FLASH->OPTKEYR = FLASH_KEY2;
 1361              		.loc 1 1128 0
 1362 0008 124B     		ldr	r3, .L128
 1363 000a 134A     		ldr	r2, .L128+4
 1364              	.LVL108:
 1365 000c 9A60     		str	r2, [r3, #8]
1129:.//FWLIB/src/stm32f10x_flash.c ****   
 1366              		.loc 1 1129 0
 1367 000e 02F18832 		add	r2, r2, #-2004318072
 1368 0012 9A60     		str	r2, [r3, #8]
1132:.//FWLIB/src/stm32f10x_flash.c ****   
 1369              		.loc 1 1132 0
 1370 0014 4FF40050 		mov	r0, #8192
 1371              	.LVL109:
 1372 0018 FFF7FEFF 		bl	FLASH_WaitForLastOperation
 1373              	.LVL110:
1134:.//FWLIB/src/stm32f10x_flash.c ****   {  
 1374              		.loc 1 1134 0
 1375 001c 0428     		cmp	r0, #4
 1376 001e 17D1     		bne	.L126
1137:.//FWLIB/src/stm32f10x_flash.c ****            
 1377              		.loc 1 1137 0
 1378 0020 0C4A     		ldr	r2, .L128
 1379 0022 1369     		ldr	r3, [r2, #16]
 1380 0024 43F01003 		orr	r3, r3, #16
 1381 0028 1361     		str	r3, [r2, #16]
1139:.//FWLIB/src/stm32f10x_flash.c ****   
 1382              		.loc 1 1139 0
ARM GAS  /var/folders/v3/pl5z0pl12fx5br3g9j_y4ffr0000gn/T//cchvY1ju.s 			page 55


 1383 002a 3443     		orrs	r4, r4, r6
 1384 002c 2C43     		orrs	r4, r4, r5
 1385 002e 44F0F804 		orr	r4, r4, #248
 1386 0032 0A4B     		ldr	r3, .L128+8
 1387 0034 5C80     		strh	r4, [r3, #2]	@ movhi
1142:.//FWLIB/src/stm32f10x_flash.c ****     if(status != FLASH_TIMEOUT)
 1388              		.loc 1 1142 0
 1389 0036 4FF40050 		mov	r0, #8192
 1390              	.LVL111:
 1391 003a FFF7FEFF 		bl	FLASH_WaitForLastOperation
 1392              	.LVL112:
1143:.//FWLIB/src/stm32f10x_flash.c ****     {
 1393              		.loc 1 1143 0
 1394 003e 0528     		cmp	r0, #5
 1395 0040 06D0     		beq	.L126
1146:.//FWLIB/src/stm32f10x_flash.c ****     }
 1396              		.loc 1 1146 0
 1397 0042 044A     		ldr	r2, .L128
 1398 0044 1369     		ldr	r3, [r2, #16]
 1399 0046 23F01003 		bic	r3, r3, #16
 1400 004a DB04     		lsls	r3, r3, #19
 1401 004c DB0C     		lsrs	r3, r3, #19
 1402 004e 1361     		str	r3, [r2, #16]
 1403              	.L126:
1151:.//FWLIB/src/stm32f10x_flash.c **** 
 1404              		.loc 1 1151 0
 1405 0050 70BD     		pop	{r4, r5, r6, pc}
 1406              	.L129:
 1407 0052 00BF     		.align	2
 1408              	.L128:
 1409 0054 00200240 		.word	1073881088
 1410 0058 23016745 		.word	1164378403
 1411 005c 00F8FF1F 		.word	536868864
 1412              		.cfi_endproc
 1413              	.LFE45:
 1415              		.section	.text.FLASH_WaitForLastBank1Operation,"ax",%progbits
 1416              		.align	2
 1417              		.global	FLASH_WaitForLastBank1Operation
 1418              		.thumb
 1419              		.thumb_func
 1421              	FLASH_WaitForLastBank1Operation:
 1422              	.LFB56:
1614:.//FWLIB/src/stm32f10x_flash.c **** 
1615:.//FWLIB/src/stm32f10x_flash.c **** /**
1616:.//FWLIB/src/stm32f10x_flash.c ****   * @brief  Waits for a Flash operation on Bank1 to complete or a TIMEOUT to occur.
1617:.//FWLIB/src/stm32f10x_flash.c ****   * @note   This function can be used for all STM32F10x devices, 
1618:.//FWLIB/src/stm32f10x_flash.c ****   *         it is equivalent to FLASH_WaitForLastOperation.
1619:.//FWLIB/src/stm32f10x_flash.c ****   * @param  Timeout: FLASH programming Timeout
1620:.//FWLIB/src/stm32f10x_flash.c ****   * @retval FLASH Status: The returned value can be: FLASH_ERROR_PG,
1621:.//FWLIB/src/stm32f10x_flash.c ****   *         FLASH_ERROR_WRP, FLASH_COMPLETE or FLASH_TIMEOUT.
1622:.//FWLIB/src/stm32f10x_flash.c ****   */
1623:.//FWLIB/src/stm32f10x_flash.c **** FLASH_Status FLASH_WaitForLastBank1Operation(uint32_t Timeout)
1624:.//FWLIB/src/stm32f10x_flash.c **** { 
 1423              		.loc 1 1624 0
 1424              		.cfi_startproc
 1425              		@ args = 0, pretend = 0, frame = 0
 1426              		@ frame_needed = 0, uses_anonymous_args = 0
ARM GAS  /var/folders/v3/pl5z0pl12fx5br3g9j_y4ffr0000gn/T//cchvY1ju.s 			page 56


 1427              	.LVL113:
 1428 0000 10B5     		push	{r4, lr}
 1429              	.LCFI12:
 1430              		.cfi_def_cfa_offset 8
 1431              		.cfi_offset 4, -8
 1432              		.cfi_offset 14, -4
 1433 0002 0446     		mov	r4, r0
 1434              	.LVL114:
1625:.//FWLIB/src/stm32f10x_flash.c ****   FLASH_Status status = FLASH_COMPLETE;
1626:.//FWLIB/src/stm32f10x_flash.c ****    
1627:.//FWLIB/src/stm32f10x_flash.c ****   /* Check for the Flash Status */
1628:.//FWLIB/src/stm32f10x_flash.c ****   status = FLASH_GetBank1Status();
 1435              		.loc 1 1628 0
 1436 0004 FFF7FEFF 		bl	FLASH_GetBank1Status
 1437              	.LVL115:
1629:.//FWLIB/src/stm32f10x_flash.c ****   /* Wait for a Flash operation to complete or a TIMEOUT to occur */
1630:.//FWLIB/src/stm32f10x_flash.c ****   while((status == FLASH_FLAG_BANK1_BSY) && (Timeout != 0x00))
 1438              		.loc 1 1630 0
 1439 0008 02E0     		b	.L131
 1440              	.L133:
1631:.//FWLIB/src/stm32f10x_flash.c ****   {
1632:.//FWLIB/src/stm32f10x_flash.c ****     status = FLASH_GetBank1Status();
 1441              		.loc 1 1632 0
 1442 000a FFF7FEFF 		bl	FLASH_GetBank1Status
 1443              	.LVL116:
1633:.//FWLIB/src/stm32f10x_flash.c ****     Timeout--;
 1444              		.loc 1 1633 0
 1445 000e 013C     		subs	r4, r4, #1
 1446              	.LVL117:
 1447              	.L131:
1630:.//FWLIB/src/stm32f10x_flash.c ****   {
 1448              		.loc 1 1630 0
 1449 0010 0128     		cmp	r0, #1
 1450 0012 01D1     		bne	.L132
1630:.//FWLIB/src/stm32f10x_flash.c ****   {
 1451              		.loc 1 1630 0 is_stmt 0 discriminator 1
 1452 0014 002C     		cmp	r4, #0
 1453 0016 F8D1     		bne	.L133
 1454              	.L132:
1634:.//FWLIB/src/stm32f10x_flash.c ****   }
1635:.//FWLIB/src/stm32f10x_flash.c ****   if(Timeout == 0x00 )
 1455              		.loc 1 1635 0 is_stmt 1
 1456 0018 04B9     		cbnz	r4, .L134
1636:.//FWLIB/src/stm32f10x_flash.c ****   {
1637:.//FWLIB/src/stm32f10x_flash.c ****     status = FLASH_TIMEOUT;
 1457              		.loc 1 1637 0
 1458 001a 0520     		movs	r0, #5
 1459              	.LVL118:
 1460              	.L134:
1638:.//FWLIB/src/stm32f10x_flash.c ****   }
1639:.//FWLIB/src/stm32f10x_flash.c ****   /* Return the operation status */
1640:.//FWLIB/src/stm32f10x_flash.c ****   return status;
1641:.//FWLIB/src/stm32f10x_flash.c **** }
 1461              		.loc 1 1641 0
 1462 001c 10BD     		pop	{r4, pc}
 1463              		.cfi_endproc
 1464              	.LFE56:
ARM GAS  /var/folders/v3/pl5z0pl12fx5br3g9j_y4ffr0000gn/T//cchvY1ju.s 			page 57


 1466 001e 00BF     		.section	.text.FLASH_EraseAllBank1Pages,"ax",%progbits
 1467              		.align	2
 1468              		.global	FLASH_EraseAllBank1Pages
 1469              		.thumb
 1470              		.thumb_func
 1472              	FLASH_EraseAllBank1Pages:
 1473              	.LFB38:
 556:.//FWLIB/src/stm32f10x_flash.c ****   FLASH_Status status = FLASH_COMPLETE;
 1474              		.loc 1 556 0
 1475              		.cfi_startproc
 1476              		@ args = 0, pretend = 0, frame = 0
 1477              		@ frame_needed = 0, uses_anonymous_args = 0
 1478 0000 10B5     		push	{r4, lr}
 1479              	.LCFI13:
 1480              		.cfi_def_cfa_offset 8
 1481              		.cfi_offset 4, -8
 1482              		.cfi_offset 14, -4
 1483              	.LVL119:
 559:.//FWLIB/src/stm32f10x_flash.c ****   
 1484              		.loc 1 559 0
 1485 0002 4FF43020 		mov	r0, #720896
 1486 0006 FFF7FEFF 		bl	FLASH_WaitForLastBank1Operation
 1487              	.LVL120:
 561:.//FWLIB/src/stm32f10x_flash.c ****   {
 1488              		.loc 1 561 0
 1489 000a 0428     		cmp	r0, #4
 1490 000c 12D1     		bne	.L138
 564:.//FWLIB/src/stm32f10x_flash.c ****      FLASH->CR |= CR_STRT_Set;
 1491              		.loc 1 564 0
 1492 000e 0A4C     		ldr	r4, .L140
 1493 0010 2369     		ldr	r3, [r4, #16]
 1494 0012 43F00403 		orr	r3, r3, #4
 1495 0016 2361     		str	r3, [r4, #16]
 565:.//FWLIB/src/stm32f10x_flash.c ****     
 1496              		.loc 1 565 0
 1497 0018 2369     		ldr	r3, [r4, #16]
 1498 001a 43F04003 		orr	r3, r3, #64
 1499 001e 2361     		str	r3, [r4, #16]
 568:.//FWLIB/src/stm32f10x_flash.c ****     
 1500              		.loc 1 568 0
 1501 0020 4FF43020 		mov	r0, #720896
 1502              	.LVL121:
 1503 0024 FFF7FEFF 		bl	FLASH_WaitForLastBank1Operation
 1504              	.LVL122:
 571:.//FWLIB/src/stm32f10x_flash.c ****   }    
 1505              		.loc 1 571 0
 1506 0028 2369     		ldr	r3, [r4, #16]
 1507 002a 23F00403 		bic	r3, r3, #4
 1508 002e DB04     		lsls	r3, r3, #19
 1509 0030 DB0C     		lsrs	r3, r3, #19
 1510 0032 2361     		str	r3, [r4, #16]
 1511              	.L138:
 575:.//FWLIB/src/stm32f10x_flash.c **** 
 1512              		.loc 1 575 0
 1513 0034 10BD     		pop	{r4, pc}
 1514              	.L141:
 1515 0036 00BF     		.align	2
ARM GAS  /var/folders/v3/pl5z0pl12fx5br3g9j_y4ffr0000gn/T//cchvY1ju.s 			page 58


 1516              	.L140:
 1517 0038 00200240 		.word	1073881088
 1518              		.cfi_endproc
 1519              	.LFE38:
 1521              		.text
 1522              	.Letext0:
 1523              		.file 2 "/Users/ertuil/gcc-arm-none-eabi/arm-none-eabi/include/machine/_default_types.h"
 1524              		.file 3 "/Users/ertuil/gcc-arm-none-eabi/arm-none-eabi/include/sys/_stdint.h"
 1525              		.file 4 "USER/stm32f10x.h"
 1526              		.file 5 "FWLIB/inc/stm32f10x_flash.h"
 1527              		.file 6 "CORE/core_cm3.h"
ARM GAS  /var/folders/v3/pl5z0pl12fx5br3g9j_y4ffr0000gn/T//cchvY1ju.s 			page 59

